(lp0
(dp1
Vfollow_request_sent
p2
NsVprofile_use_background_image
p3
I01
sVdefault_profile_image
p4
I00
sVid
p5
I109933555
sVprofile_background_image_url_https
p6
Vhttps://abs.twimg.com/images/themes/theme1/bg.png
p7
sVverified
p8
I00
sVprofile_text_color
p9
V333333
p10
sVmuting
p11
NsVprofile_image_url_https
p12
Vhttps://pbs.twimg.com/profile_images/378800000585053259/8f3a54335362c6c48b17b608dc0035a7_normal.jpeg
p13
sVprofile_sidebar_fill_color
p14
VDDEEF6
p15
sVentities
p16
(dp17
Vdescription
p18
(dp19
Vurls
p20
(lp21
sssVfollowers_count
p22
I387
sVprofile_sidebar_border_color
p23
VC0DEED
p24
sVid_str
p25
V109933555
p26
sVprofile_background_color
p27
VC0DEED
p28
sVlisted_count
p29
I11
sVstatus
p30
(dp31
Vcontributors
p32
NsVtruncated
p33
I00
sVtext
p34
Vexciting http://t.co/CCbevSnKx2
p35
sVin_reply_to_status_id
p36
Nsg5
I474491763931901952
sVfavorite_count
p37
I0
sVsource
p38
V<a href="http://www.linkedin.com/" rel="nofollow">LinkedIn</a>
p39
sVretweeted
p40
I00
sVcoordinates
p41
Nsg16
(dp42
Vsymbols
p43
(lp44
sVuser_mentions
p45
(lp46
sVhashtags
p47
(lp48
sg20
(lp49
(dp50
Vurl
p51
Vhttp://t.co/CCbevSnKx2
p52
sVindices
p53
(lp54
I9
aI31
asVexpanded_url
p55
Vhttp://lnkd.in/dhkQMkT
p56
sVdisplay_url
p57
Vlnkd.in/dhkQMkT
p58
sassVin_reply_to_screen_name
p59
Nsg25
V474491763931901952
p60
sVretweet_count
p61
I0
sVin_reply_to_user_id
p62
NsVfavorited
p63
I00
sVgeo
p64
NsVin_reply_to_user_id_str
p65
NsVpossibly_sensitive
p66
I00
sVlang
p67
Ven
p68
sVcreated_at
p69
VThu Jun 05 10:03:46 +0000 2014
p70
sVin_reply_to_status_id_str
p71
NsVplace
p72
NssVis_translation_enabled
p73
I00
sVutc_offset
p74
I7200
sVstatuses_count
p75
I5848
sg18
VConsultant/interim manager in ICT. Freelance. Telecom/mobile adept, gadget freak, food & wine lover and people's person.
p76
sVfriends_count
p77
I443
sVlocation
p78
VNairobi
p79
sVprofile_link_color
p80
V0084B4
p81
sVprofile_image_url
p82
Vhttp://pbs.twimg.com/profile_images/378800000585053259/8f3a54335362c6c48b17b608dc0035a7_normal.jpeg
p83
sVfollowing
p84
NsVgeo_enabled
p85
I01
sVprofile_banner_url
p86
Vhttps://pbs.twimg.com/profile_banners/109933555/1379963133
p87
sVprofile_background_image_url
p88
Vhttp://abs.twimg.com/images/themes/theme1/bg.png
p89
sVscreen_name
p90
Vdirkjankoeman
p91
sg67
Ven
p92
sVprofile_background_tile
p93
I00
sVfavourites_count
p94
I18
sVname
p95
VDirk-Jan Koeman
p96
sVnotifications
p97
Nsg51
Nsg69
VSat Jan 30 19:17:31 +0000 2010
p98
sVcontributors_enabled
p99
I00
sVtime_zone
p100
VAmsterdam
p101
sVprotected
p102
I00
sVdefault_profile
p103
I01
sVis_translator
p104
I00
sa.