(lp0
(dp1
Vfollow_request_sent
p2
NsVprofile_use_background_image
p3
I01
sVdefault_profile_image
p4
I00
sVid
p5
I359944658
sVprofile_background_image_url_https
p6
Vhttps://pbs.twimg.com/profile_background_images/378800000042853350/74c080a860a84b7627640b1e092c822f.jpeg
p7
sVverified
p8
I00
sVprofile_text_color
p9
V3D1957
p10
sVmuting
p11
NsVprofile_image_url_https
p12
Vhttps://pbs.twimg.com/profile_images/470653818796265473/4ia2WShr_normal.jpeg
p13
sVprofile_sidebar_fill_color
p14
V7AC3EE
p15
sVentities
p16
(dp17
Vurl
p18
(dp19
Vurls
p20
(lp21
(dp22
g18
Vhttp://t.co/OSLB4SBV1U
p23
sVindices
p24
(lp25
I0
aI22
asVexpanded_url
p26
Vhttp://facebook.com/Suburban254
p27
sVdisplay_url
p28
Vfacebook.com/Suburban254
p29
sassVdescription
p30
(dp31
g20
(lp32
sssVfollowers_count
p33
I632
sVprofile_sidebar_border_color
p34
VFFFFFF
p35
sVid_str
p36
V359944658
p37
sVprofile_background_color
p38
V41DE0D
p39
sVlisted_count
p40
I1
sVstatus
p41
(dp42
Vcontributors
p43
NsVtruncated
p44
I00
sVtext
p45
VToday stats: One follower, No unfollowers via http://t.co/2ZC2vz3Obc
p46
sVin_reply_to_status_id
p47
Nsg5
I475277038584999936
sVfavorite_count
p48
I0
sVsource
p49
V<a href="http://unfollowers.com" rel="nofollow">Unfollowers.me</a>
p50
sVretweeted
p51
I00
sVcoordinates
p52
Nsg16
(dp53
Vsymbols
p54
(lp55
sVuser_mentions
p56
(lp57
sVhashtags
p58
(lp59
sg20
(lp60
(dp61
g18
Vhttp://t.co/2ZC2vz3Obc
p62
sg24
(lp63
I46
aI68
asg26
Vhttp://Unfollowers.com/?s=dt
p64
sg28
VUnfollowers.com/?s=dt
p65
sassVin_reply_to_screen_name
p66
Nsg36
V475277038584999936
p67
sVretweet_count
p68
I0
sVin_reply_to_user_id
p69
NsVfavorited
p70
I00
sVgeo
p71
NsVin_reply_to_user_id_str
p72
NsVpossibly_sensitive
p73
I00
sVlang
p74
Ven
p75
sVcreated_at
p76
VSat Jun 07 14:04:10 +0000 2014
p77
sVin_reply_to_status_id_str
p78
NsVplace
p79
NssVis_translation_enabled
p80
I00
sVutc_offset
p81
I10800
sVstatuses_count
p82
I2268
sg30
V\u261c\u2606\u261eGeechi Liberace\u261c\u2606\u261e
p83
sVfriends_count
p84
I747
sVlocation
p85
VNairobi,Kenya
p86
sVprofile_link_color
p87
V1010E6
p88
sVprofile_image_url
p89
Vhttp://pbs.twimg.com/profile_images/470653818796265473/4ia2WShr_normal.jpeg
p90
sVfollowing
p91
NsVgeo_enabled
p92
I01
sVprofile_banner_url
p93
Vhttps://pbs.twimg.com/profile_banners/359944658/1397060907
p94
sVprofile_background_image_url
p95
Vhttp://pbs.twimg.com/profile_background_images/378800000042853350/74c080a860a84b7627640b1e092c822f.jpeg
p96
sVscreen_name
p97
V_Mikeyisme
p98
sg74
Ven
p99
sVprofile_background_tile
p100
I01
sVfavourites_count
p101
I148
sVname
p102
V\u261c\u2606\u261e Mikey \u261c\u2606\u261e
p103
sVnotifications
p104
Nsg18
Vhttp://t.co/OSLB4SBV1U
p105
sg76
VMon Aug 22 12:45:55 +0000 2011
p106
sVcontributors_enabled
p107
I00
sVtime_zone
p108
VBaghdad
p109
sVprotected
p110
I00
sVdefault_profile
p111
I00
sVis_translator
p112
I00
sa(dp113
g2
Nsg3
I01
sg4
I00
sg5
I35873931
sg6
Vhttps://pbs.twimg.com/profile_background_images/418947322/daisy.jpg
p114
sg8
I00
sg9
V739E9F
p115
sg11
Nsg12
Vhttps://pbs.twimg.com/profile_images/378800000844329691/27e20455597b5e04e9f4816ce7b9e387_normal.jpeg
p116
sg14
V3B615D
p117
sg16
(dp118
g18
(dp119
g20
(lp120
(dp121
g18
Vhttp://t.co/LgASMxtL
p122
sg24
(lp123
I0
aI20
asg26
Vhttp://www.facebook.com/shikuinteriors
p124
sg28
Vfacebook.com/shikuinteriors
p125
sassg30
(dp126
g20
(lp127
sssg33
I783
sg34
VAEF5FA
p128
sg36
V35873931
p129
sg38
V214542
p130
sg40
I14
sg41
(dp131
g43
Nsg44
I00
sg45
VRT @_Koosy: Lord I pray for my unborn daughters and my baby sister. That is all.
p132
sg47
Nsg5
I474998677745180672
sg48
I0
sg49
V<a href="http://twitter.com/download/iphone" rel="nofollow">Twitter for iPhone</a>
p133
sg51
I00
sg52
Nsg16
(dp134
g54
(lp135
sg56
(lp136
(dp137
g5
I32859217
sg24
(lp138
I3
aI10
asg36
V32859217
p139
sg97
V_Koosy
p140
sg102
V^^,
p141
sasg58
(lp142
sg20
(lp143
ssg66
Nsg36
V474998677745180672
p144
sg68
I6
sg69
Nsg70
I00
sVretweeted_status
p145
(dp146
g74
Ven
p147
sg70
I00
sg16
(dp148
g54
(lp149
sg56
(lp150
sg58
(lp151
sg20
(lp152
ssg43
Nsg44
I00
sg45
VLord I pray for my unborn daughters and my baby sister. That is all.
p153
sg76
VFri Jun 06 19:36:46 +0000 2014
p154
sg51
I00
sg78
Nsg52
Nsg72
Nsg49
V<a href="http://twitter.com/download/iphone" rel="nofollow">Twitter for iPhone</a>
p155
sg47
Nsg66
Nsg36
V474998350920810497
p156
sg79
Nsg68
I6
sg71
Nsg5
I474998350920810497
sg48
I0
sg69
Nssg71
Nsg72
Nsg74
Ven
p157
sg76
VFri Jun 06 19:38:04 +0000 2014
p158
sg78
Nsg79
Nssg80
I00
sg81
I10800
sg82
I11171
sg30
Vsunshine. love. laughter. travel. music. books. nyeri ninja. physicist turned home decorator. football. #lfc #ynwa
p159
sg84
I734
sg85
VNairobi, Kenya
p160
sg87
V518147
p161
sg89
Vhttp://pbs.twimg.com/profile_images/378800000844329691/27e20455597b5e04e9f4816ce7b9e387_normal.jpeg
p162
sg91
Nsg92
I01
sg93
Vhttps://pbs.twimg.com/profile_banners/35873931/1348433450
p163
sg95
Vhttp://pbs.twimg.com/profile_background_images/418947322/daisy.jpg
p164
sg97
Vchubbyshix
p165
sg74
Ven
p166
sg100
I00
sg101
I483
sg102
VMiss Muchiri
p167
sg104
Nsg18
Vhttp://t.co/LgASMxtL
p168
sg76
VMon Apr 27 21:50:52 +0000 2009
p169
sg107
I00
sg108
VNairobi
p170
sg110
I00
sg111
I00
sg112
I00
sa(dp171
g2
Nsg3
I01
sg4
I00
sg5
I350400538
sg6
Vhttps://abs.twimg.com/images/themes/theme1/bg.png
p172
sg8
I00
sg9
V333333
p173
sg11
Nsg12
Vhttps://pbs.twimg.com/profile_images/435727234855215104/duh-NUJ2_normal.jpeg
p174
sg14
VDDEEF6
p175
sg16
(dp176
g30
(dp177
g20
(lp178
sssg33
I60
sg34
VC0DEED
p179
sg36
V350400538
p180
sg38
VC0DEED
p181
sg40
I0
sg41
(dp182
g74
Ven
p183
sg70
I00
sg16
(dp184
g54
(lp185
sg56
(lp186
(dp187
g5
I322023198
sg24
(lp188
I0
aI9
asg36
V322023198
p189
sg97
Vmutua007
p190
sg102
VDennis Mutua
p191
sasg58
(lp192
sg20
(lp193
ssg43
Nsg44
I00
sg45
V@mutua007 hey hey hey i had a creative block today. it happens to the best of us. the comebacks will c.... no not going to happen again.
p194
sg76
VSat May 10 21:03:28 +0000 2014
p195
sg51
I00
sg78
V465229325093339137
p196
sg52
Nsg72
V322023198
p197
sg49
V<a href="http://twitter.com" rel="nofollow">Twitter Web Client</a>
p198
sg47
I465229325093339137
sg66
Vmutua007
p199
sg36
V465235696912191488
p200
sg79
Nsg68
I0
sg71
Nsg5
I465235696912191488
sg48
I0
sg69
I322023198
ssg80
I00
sg81
I-18000
sg82
I231
sg30
VThat guy who bends the laws of normal social activity.
p201
sg84
I115
sg85
VNairobi
p202
sg87
V0084B4
p203
sg89
Vhttp://pbs.twimg.com/profile_images/435727234855215104/duh-NUJ2_normal.jpeg
p204
sg91
Nsg92
I01
sg93
Vhttps://pbs.twimg.com/profile_banners/350400538/1399753748
p205
sg95
Vhttp://abs.twimg.com/images/themes/theme1/bg.png
p206
sg97
VSirfishticated
p207
sg74
Ven
p208
sg100
I00
sg101
I8
sg102
VKevin Kimutai Rono
p209
sg104
Nsg18
Nsg76
VSun Aug 07 18:20:22 +0000 2011
p210
sg107
I00
sg108
VQuito
p211
sg110
I00
sg111
I01
sg112
I00
sa(dp212
g2
Nsg3
I01
sg4
I00
sg5
I135510993
sg6
Vhttps://pbs.twimg.com/profile_background_images/825917256/7cf30edea0c240898bb1b1bc296230a6.jpeg
p213
sg8
I00
sg9
V333333
p214
sg11
Nsg12
Vhttps://pbs.twimg.com/profile_images/441232148797067265/TsI6caHV_normal.jpeg
p215
sg14
VEFEFEF
p216
sg16
(dp217
g18
(dp218
g20
(lp219
(dp220
g18
Vhttp://t.co/G91NYTF8nD
p221
sg24
(lp222
I0
aI22
asg26
Vhttp://nirvanadaze.tumblr.com/
p223
sg28
Vnirvanadaze.tumblr.com
p224
sassg30
(dp225
g20
(lp226
sssg33
I300
sg34
VFFFFFF
p227
sg36
V135510993
p228
sg38
V1A1B1F
p229
sg40
I1
sg41
(dp230
g43
Nsg44
I00
sg45
VRT @TedOfficialPage: #ThisCouldBeUsButWeInDifferentGrades http://t.co/FMjpGgJkNV
p231
sg47
Nsg5
I473989496724152320
sg48
I0
sg49
V<a href="http://twitter.com/download/iphone" rel="nofollow">Twitter for iPhone</a>
p232
sg51
I00
sg52
Nsg16
(dp233
g54
(lp234
sg56
(lp235
(dp236
g5
I259132164
sg24
(lp237
I3
aI19
asg36
V259132164
p238
sg97
VTedOfficialPage
p239
sg102
VTED
p240
sasg58
(lp241
(dp242
g24
(lp243
I21
aI57
asg45
VThisCouldBeUsButWeInDifferentGrades
p244
sasg20
(lp245
sVmedia
p246
(lp247
(dp248
Vsource_status_id_str
p249
V473225055057764353
p250
sg26
Vhttp://twitter.com/TedOfficialPage/status/473225055057764353/photo/1
p251
sg28
Vpic.twitter.com/FMjpGgJkNV
p252
sg18
Vhttp://t.co/FMjpGgJkNV
p253
sVmedia_url_https
p254
Vhttps://pbs.twimg.com/media/BpE7riMIYAImnbs.jpg
p255
sVsource_status_id
p256
I473225055057764353
sg36
V473225054948712450
p257
sVsizes
p258
(dp259
Vlarge
p260
(dp261
Vh
p262
I409
sVresize
p263
Vfit
p264
sVw
p265
I500
ssVsmall
p266
(dp267
g262
I278
sg263
Vfit
p268
sg265
I340
ssVmedium
p269
(dp270
g262
I409
sg263
Vfit
p271
sg265
I500
ssVthumb
p272
(dp273
g262
I150
sg263
Vcrop
p274
sg265
I150
sssg24
(lp275
I58
aI80
asVtype
p276
Vphoto
p277
sg5
I473225054948712450
sVmedia_url
p278
Vhttp://pbs.twimg.com/media/BpE7riMIYAImnbs.jpg
p279
sassg66
Nsg36
V473989496724152320
p280
sg68
I556
sg69
Nsg70
I00
sg145
(dp281
g43
Nsg44
I00
sg45
V#ThisCouldBeUsButWeInDifferentGrades http://t.co/FMjpGgJkNV
p282
sg47
Nsg5
I473225055057764353
sg48
I821
sg49
V<a href="http://bufferapp.com" rel="nofollow">Buffer</a>
p283
sg51
I00
sg52
Nsg16
(dp284
g54
(lp285
sg56
(lp286
sg58
(lp287
(dp288
g24
(lp289
I0
aI36
asg45
VThisCouldBeUsButWeInDifferentGrades
p290
sasg20
(lp291
sg246
(lp292
(dp293
g26
Vhttp://twitter.com/TedOfficialPage/status/473225055057764353/photo/1
p294
sg28
Vpic.twitter.com/FMjpGgJkNV
p295
sg18
Vhttp://t.co/FMjpGgJkNV
p296
sg254
Vhttps://pbs.twimg.com/media/BpE7riMIYAImnbs.jpg
p297
sg36
V473225054948712450
p298
sg258
(dp299
g260
(dp300
g262
I409
sg263
Vfit
p301
sg265
I500
ssg266
(dp302
g262
I278
sg263
Vfit
p303
sg265
I340
ssg269
(dp304
g262
I409
sg263
Vfit
p305
sg265
I500
ssg272
(dp306
g262
I150
sg263
Vcrop
p307
sg265
I150
sssg24
(lp308
I37
aI59
asg276
Vphoto
p309
sg5
I473225054948712450
sg278
Vhttp://pbs.twimg.com/media/BpE7riMIYAImnbs.jpg
p310
sassg66
Nsg36
V473225055057764353
p311
sg68
I556
sg69
Nsg70
I00
sg71
Nsg72
Nsg73
I01
sg74
Ven
p312
sg76
VSun Jun 01 22:10:19 +0000 2014
p313
sg78
Nsg79
Nssg71
Nsg72
Nsg73
I00
sg74
Ven
p314
sg76
VWed Jun 04 00:47:56 +0000 2014
p315
sg78
Nsg79
Nssg80
I00
sg81
I-18000
sg82
I1712
sg30
V| Shady Shady | Instagram & Keek: lynkahinga
p316
sg84
I211
sg85
VNairobi
p317
sg87
V912FED
p318
sg89
Vhttp://pbs.twimg.com/profile_images/441232148797067265/TsI6caHV_normal.jpeg
p319
sg91
Nsg92
I01
sg93
Vhttps://pbs.twimg.com/profile_banners/135510993/1399992060
p320
sg95
Vhttp://pbs.twimg.com/profile_background_images/825917256/7cf30edea0c240898bb1b1bc296230a6.jpeg
p321
sg97
Vlynkahinga
p322
sg74
Ven
p323
sg100
I01
sg101
I350
sg102
VLynette Kahinga \u2728
p324
sg104
Nsg18
Vhttp://t.co/G91NYTF8nD
p325
sg76
VWed Apr 21 14:15:21 +0000 2010
p326
sg107
I00
sg108
VQuito
p327
sg110
I00
sg111
I00
sg112
I00
sa(dp328
g2
Nsg3
I01
sg4
I00
sg5
I39309978
sg6
Vhttps://pbs.twimg.com/profile_background_images/727320764/a43ea7fe8d71f79f681d82a9041c78d9.jpeg
p329
sg8
I00
sg9
VE60999
p330
sg11
Nsg12
Vhttps://pbs.twimg.com/profile_images/1817361543/Picture0014_normal.jpg
p331
sg14
VF5DCE2
p332
sg16
(dp333
g18
(dp334
g20
(lp335
(dp336
g18
Vhttp://t.co/XhNiIiF7kA
p337
sg24
(lp338
I0
aI22
asg26
Vhttp://facebook.com/xThats.It
p339
sg28
Vfacebook.com/xThats.It
p340
sassg30
(dp341
g20
(lp342
sssg33
I710
sg34
V000000
p343
sg36
V39309978
p344
sg38
VF7059A
p345
sg40
I1
sg41
(dp346
g74
Ven
p347
sg70
I00
sg16
(dp348
g54
(lp349
sg56
(lp350
sg58
(lp351
sg20
(lp352
ssg43
Nsg44
I00
sg45
VLoosing my fucking mind.
p353
sg76
VSat May 24 21:10:34 +0000 2014
p354
sg51
I00
sg78
Nsg52
Nsg72
Nsg49
V<a href="http://store.ovi.com/content/256340" rel="nofollow">Twitter for Nokia S40</a>
p355
sg47
Nsg66
Nsg36
V470310912369635328
p356
sg79
Nsg68
I0
sg71
Nsg5
I470310912369635328
sg48
I0
sg69
Nssg80
I00
sg81
I-18000
sg82
I1371
sg30
VSmiles on smiles ;) :D
p357
sg84
I620
sg85
VNairobi,Kenya
p358
sg87
V0A0A0A
p359
sg89
Vhttp://pbs.twimg.com/profile_images/1817361543/Picture0014_normal.jpg
p360
sg91
Nsg92
I01
sg93
Vhttps://pbs.twimg.com/profile_banners/39309978/1394779607
p361
sg95
Vhttp://pbs.twimg.com/profile_background_images/727320764/a43ea7fe8d71f79f681d82a9041c78d9.jpeg
p362
sg97
VMadia_11
p363
sg74
Ven
p364
sg100
I01
sg101
I6
sg102
VDonna Welch
p365
sg104
Nsg18
Vhttp://t.co/XhNiIiF7kA
p366
sg76
VMon May 11 18:38:18 +0000 2009
p367
sg107
I00
sg108
VQuito
p368
sg110
I00
sg111
I00
sg112
I00
sa(dp369
g2
Nsg3
I01
sg4
I00
sg5
I332465279
sg6
Vhttps://abs.twimg.com/images/themes/theme14/bg.gif
p370
sg8
I00
sg9
V333333
p371
sg11
Nsg12
Vhttps://pbs.twimg.com/profile_images/468032767591460864/gpBvF-Xk_normal.jpeg
p372
sg14
VEFEFEF
p373
sg16
(dp374
g30
(dp375
g20
(lp376
sssg33
I684
sg34
VFFFFFF
p377
sg36
V332465279
p378
sg38
V131516
p379
sg40
I2
sg41
(dp380
g43
Nsg44
I00
sg45
VRT @PMPlove: \u201c@Rickonia: Everyone's acting like Rihanna's the 1st person to rock a sheer outfit on a red carpet http://t.co/7sVEG1DP9e\u201d I C\u2026
p381
sg47
Nsg5
I475420308246364160
sg48
I0
sg49
V<a href="http://twitter.com/download/android" rel="nofollow">Twitter for Android</a>
p382
sg51
I00
sg52
Nsg16
(dp383
g54
(lp384
sg56
(lp385
(dp386
g5
I131991803
sg24
(lp387
I3
aI11
asg36
V131991803
p388
sg97
VPMPlove
p389
sg102
VParker McKenna Posey
p390
sa(dp391
g5
I39563785
sg24
(lp392
I14
aI23
asg36
V39563785
p393
sg97
VRickonia
p394
sg102
VRick The Ruler
p395
sasg58
(lp396
sg20
(lp397
sg246
(lp398
(dp399
g249
V473677085329072128
p400
sg26
Vhttp://twitter.com/Rickonia/status/473677085329072128/photo/1
p401
sg28
Vpic.twitter.com/7sVEG1DP9e
p402
sg18
Vhttp://t.co/7sVEG1DP9e
p403
sg254
Vhttps://pbs.twimg.com/media/BpLWzJ3IYAARjeg.jpg
p404
sg256
I473677085329072128
sg36
V473677085136150528
p405
sg258
(dp406
g260
(dp407
g262
I673
sg263
Vfit
p408
sg265
I500
ssg266
(dp409
g262
I458
sg263
Vfit
p410
sg265
I340
ssg269
(dp411
g262
I673
sg263
Vfit
p412
sg265
I500
ssg272
(dp413
g262
I150
sg263
Vcrop
p414
sg265
I150
sssg24
(lp415
I112
aI134
asg276
Vphoto
p416
sg5
I473677085136150528
sg278
Vhttp://pbs.twimg.com/media/BpLWzJ3IYAARjeg.jpg
p417
sassg66
Nsg36
V475420308246364160
p418
sg68
I137
sg69
Nsg70
I00
sg145
(dp419
g43
Nsg44
I00
sg45
V\u201c@Rickonia: Everyone's acting like Rihanna's the 1st person to rock a sheer outfit on a red carpet http://t.co/7sVEG1DP9e\u201d I CANT
p420
sg47
I473677085329072128
sg5
I473734852634619904
sg48
I65
sg49
V<a href="http://twitter.com/download/iphone" rel="nofollow">Twitter for iPhone</a>
p421
sg51
I00
sg52
Nsg16
(dp422
g54
(lp423
sg56
(lp424
(dp425
g5
I39563785
sg24
(lp426
I1
aI10
asg36
V39563785
p427
sg97
VRickonia
p428
sg102
VRick The Ruler
p429
sasg58
(lp430
sg20
(lp431
sg246
(lp432
(dp433
g249
V473677085329072128
p434
sg26
Vhttp://twitter.com/Rickonia/status/473677085329072128/photo/1
p435
sg28
Vpic.twitter.com/7sVEG1DP9e
p436
sg18
Vhttp://t.co/7sVEG1DP9e
p437
sg254
Vhttps://pbs.twimg.com/media/BpLWzJ3IYAARjeg.jpg
p438
sg256
I473677085329072128
sg36
V473677085136150528
p439
sg258
(dp440
g260
(dp441
g262
I673
sg263
Vfit
p442
sg265
I500
ssg266
(dp443
g262
I458
sg263
Vfit
p444
sg265
I340
ssg269
(dp445
g262
I673
sg263
Vfit
p446
sg265
I500
ssg272
(dp447
g262
I150
sg263
Vcrop
p448
sg265
I150
sssg24
(lp449
I99
aI121
asg276
Vphoto
p450
sg5
I473677085136150528
sg278
Vhttp://pbs.twimg.com/media/BpLWzJ3IYAARjeg.jpg
p451
sassg66
VRickonia
p452
sg36
V473734852634619904
p453
sg68
I137
sg69
I39563785
sg70
I00
sg71
Nsg72
V39563785
p454
sg73
I00
sg74
Ven
p455
sg76
VTue Jun 03 07:56:05 +0000 2014
p456
sg78
V473677085329072128
p457
sg79
Nssg71
Nsg72
Nsg73
I00
sg74
Ven
p458
sg76
VSat Jun 07 23:33:29 +0000 2014
p459
sg78
Nsg79
Nssg80
I00
sg81
I10800
sg82
I11022
sg30
VChild and Lover of the Almighty God :)                               A magnet for blessings.
p460
sg84
I437
sg85
VNairobi, Kenya
p461
sg87
V009999
p462
sg89
Vhttp://pbs.twimg.com/profile_images/468032767591460864/gpBvF-Xk_normal.jpeg
p463
sg91
Nsg92
I01
sg93
Vhttps://pbs.twimg.com/profile_banners/332465279/1400422677
p464
sg95
Vhttp://abs.twimg.com/images/themes/theme14/bg.gif
p465
sg97
Vvanessanderu
p466
sg74
Ven
p467
sg100
I01
sg101
I80
sg102
VVanessa M Nderu
p468
sg104
Nsg18
Nsg76
VSat Jul 09 21:22:21 +0000 2011
p469
sg107
I00
sg108
VNairobi
p470
sg110
I00
sg111
I00
sg112
I00
sa(dp471
g2
Nsg3
I01
sg4
I00
sg5
I130785836
sg6
Vhttps://pbs.twimg.com/profile_background_images/378800000020282587/919c68a8251cc0e2c7ac721879d0f519.png
p472
sg8
I00
sg9
V333333
p473
sg11
Nsg12
Vhttps://pbs.twimg.com/profile_images/445615492036698112/RFS7XmTA_normal.png
p474
sg14
VEFEFEF
p475
sg16
(dp476
g18
(dp477
g20
(lp478
(dp479
g18
Vhttp://t.co/RFhasJHJXB
p480
sg24
(lp481
I0
aI22
asg26
Vhttp://facebook.com/6amkenya
p482
sg28
Vfacebook.com/6amkenya
p483
sassg30
(dp484
g20
(lp485
sssg33
I5737
sg34
V000000
p486
sg36
V130785836
p487
sg38
VEDF2F5
p488
sg40
I11
sg41
(dp489
g43
Nsg44
I00
sg45
VRT @DJBlueFlame: ShoutOut to @6amkenya. Thanks for the followback!
p490
sg47
Nsg5
I475280386785017856
sg48
I0
sg49
V<a href="http://twitter.com/download/android" rel="nofollow">Twitter for Android</a>
p491
sg51
I00
sg52
Nsg16
(dp492
g54
(lp493
sg56
(lp494
(dp495
g5
I210048396
sg24
(lp496
I3
aI15
asg36
V210048396
p497
sg97
VDJBlueFlame
p498
sg102
VDJ Blueflame
p499
sa(dp500
g5
I130785836
sg24
(lp501
I29
aI38
asg36
V130785836
p502
sg97
V6amkenya
p503
sg102
V6:AM ENTERTAINMENT
p504
sasg58
(lp505
sg20
(lp506
ssg66
Nsg36
V475280386785017856
p507
sg68
I2
sg69
Nsg70
I00
sg145
(dp508
g74
Ven
p509
sg70
I00
sg16
(dp510
g54
(lp511
sg56
(lp512
(dp513
g5
I130785836
sg24
(lp514
I12
aI21
asg36
V130785836
p515
sg97
V6amkenya
p516
sg102
V6:AM ENTERTAINMENT
p517
sasg58
(lp518
sg20
(lp519
ssg43
Nsg44
I00
sg45
VShoutOut to @6amkenya. Thanks for the followback!
p520
sg76
VSat Jun 07 13:04:29 +0000 2014
p521
sg51
I00
sg78
Nsg52
Nsg72
Nsg49
V<a href="http://twitter.com" rel="nofollow">Twitter Web Client</a>
p522
sg47
Nsg66
Nsg36
V475262017147002881
p523
sg79
Nsg68
I2
sg71
Nsg5
I475262017147002881
sg48
I1
sg69
Nssg71
Nsg72
Nsg74
Ven
p524
sg76
VSat Jun 07 14:17:29 +0000 2014
p525
sg78
Nsg79
Nssg80
I00
sg81
I10800
sg82
I3188
sg30
V6:AM is finally back - Sunglasses at Night on June 21st @ Treehouse feat Barney Barrow, DJ K, Mikhail Kuzi, Drazen and Sean Fraser. Advance tickets out now!
p526
sg84
I6310
sg85
VNairobi - Kenya
p527
sg87
V009999
p528
sg89
Vhttp://pbs.twimg.com/profile_images/445615492036698112/RFS7XmTA_normal.png
p529
sg91
Nsg92
I01
sg93
Vhttps://pbs.twimg.com/profile_banners/130785836/1402068530
p530
sg95
Vhttp://pbs.twimg.com/profile_background_images/378800000020282587/919c68a8251cc0e2c7ac721879d0f519.png
p531
sg97
V6amkenya
p532
sg74
Ven
p533
sg100
I00
sg101
I0
sg102
V6:AM ENTERTAINMENT
p534
sg104
Nsg18
Vhttp://t.co/RFhasJHJXB
p535
sg76
VThu Apr 08 09:10:58 +0000 2010
p536
sg107
I00
sg108
VNairobi
p537
sg110
I00
sg111
I00
sg112
I00
sa(dp538
g2
Nsg3
I01
sg4
I00
sg5
I32489587
sg6
Vhttps://pbs.twimg.com/profile_background_images/399712184/Trick_Or_Treat.jpg
p539
sg8
I00
sg9
V333333
p540
sg11
Nsg12
Vhttps://pbs.twimg.com/profile_images/453369946912092160/DYkQEU0L_normal.jpeg
p541
sg14
VDDEEF6
p542
sg16
(dp543
g18
(dp544
g20
(lp545
(dp546
g18
Vhttp://t.co/d5vgMxn4B5
p547
sg24
(lp548
I0
aI22
asg26
Vhttp://pierrelaisse.tumblr.com
p549
sg28
Vpierrelaisse.tumblr.com
p550
sassg30
(dp551
g20
(lp552
sssg33
I308
sg34
VC0DEED
p553
sg36
V32489587
p554
sg38
VC0DEED
p555
sg40
I0
sg41
(dp556
g43
Nsg44
I00
sg45
VRT @NightLifeFails: He passed out and missed the chance of his life http://t.co/UzklQMBL1a
p557
sg47
Nsg5
I475319761803698176
sg48
I0
sg49
V<a href="http://twitter.com" rel="nofollow">Twitter Web Client</a>
p558
sg51
I00
sg52
Nsg16
(dp559
g54
(lp560
sg56
(lp561
(dp562
g5
I1356953600
sg24
(lp563
I3
aI18
asg36
V1356953600
p564
sg97
VNightLifeFails
p565
sg102
VNight Life Fails
p566
sasg58
(lp567
sg20
(lp568
sg246
(lp569
(dp570
g249
V451427394750922752
p571
sg26
Vhttp://twitter.com/NightLifeFails/status/451427394750922752/photo/1
p572
sg28
Vpic.twitter.com/UzklQMBL1a
p573
sg18
Vhttp://t.co/UzklQMBL1a
p574
sg254
Vhttps://pbs.twimg.com/media/BkPK0tnCMAAl12L.jpg
p575
sg256
I451427394750922752
sg36
V451427394612506624
p576
sg258
(dp577
g260
(dp578
g262
I503
sg263
Vfit
p579
sg265
I700
ssg266
(dp580
g262
I244
sg263
Vfit
p581
sg265
I340
ssg269
(dp582
g262
I431
sg263
Vfit
p583
sg265
I600
ssg272
(dp584
g262
I150
sg263
Vcrop
p585
sg265
I150
sssg24
(lp586
I68
aI90
asg276
Vphoto
p587
sg5
I451427394612506624
sg278
Vhttp://pbs.twimg.com/media/BkPK0tnCMAAl12L.jpg
p588
sassg66
Nsg36
V475319761803698176
p589
sg68
I18472
sg69
Nsg70
I00
sg145
(dp590
g43
Nsg44
I00
sg45
VHe passed out and missed the chance of his life http://t.co/UzklQMBL1a
p591
sg47
Nsg5
I451427394750922752
sg48
I21728
sg49
V<a href="https://about.twitter.com/products/tweetdeck" rel="nofollow">TweetDeck</a>
p592
sg51
I00
sg52
Nsg16
(dp593
g54
(lp594
sg56
(lp595
sg58
(lp596
sg20
(lp597
sg246
(lp598
(dp599
g26
Vhttp://twitter.com/NightLifeFails/status/451427394750922752/photo/1
p600
sg28
Vpic.twitter.com/UzklQMBL1a
p601
sg18
Vhttp://t.co/UzklQMBL1a
p602
sg254
Vhttps://pbs.twimg.com/media/BkPK0tnCMAAl12L.jpg
p603
sg36
V451427394612506624
p604
sg258
(dp605
g260
(dp606
g262
I503
sg263
Vfit
p607
sg265
I700
ssg266
(dp608
g262
I244
sg263
Vfit
p609
sg265
I340
ssg269
(dp610
g262
I431
sg263
Vfit
p611
sg265
I600
ssg272
(dp612
g262
I150
sg263
Vcrop
p613
sg265
I150
sssg24
(lp614
I48
aI70
asg276
Vphoto
p615
sg5
I451427394612506624
sg278
Vhttp://pbs.twimg.com/media/BkPK0tnCMAAl12L.jpg
p616
sassg66
Nsg36
V451427394750922752
p617
sg68
I18472
sg69
Nsg70
I00
sg71
Nsg72
Nsg73
I01
sg74
Ven
p618
sg76
VWed Apr 02 18:34:12 +0000 2014
p619
sg78
Nsg79
Nssg71
Nsg72
Nsg73
I01
sg74
Ven
p620
sg76
VSat Jun 07 16:53:56 +0000 2014
p621
sg78
Nsg79
Nssg80
I00
sg81
I3600
sg82
I6899
sg30
V
p622
sg84
I563
sg85
VNairobi    
p623
sg87
V0084B4
p624
sg89
Vhttp://pbs.twimg.com/profile_images/453369946912092160/DYkQEU0L_normal.jpeg
p625
sg91
Nsg92
I01
sg93
Vhttps://pbs.twimg.com/profile_banners/32489587/1394105889
p626
sg95
Vhttp://pbs.twimg.com/profile_background_images/399712184/Trick_Or_Treat.jpg
p627
sg97
VWexa_Man
p628
sg74
Ven
p629
sg100
I00
sg101
I382
sg102
VPeter Wekesa
p630
sg104
Nsg18
Vhttp://t.co/d5vgMxn4B5
p631
sg76
VFri Apr 17 17:29:33 +0000 2009
p632
sg107
I00
sg108
VEdinburgh
p633
sg110
I00
sg111
I00
sg112
I00
sa.