(lp0
(dp1
Vfollow_request_sent
p2
NsVprofile_use_background_image
p3
I01
sVdefault_profile_image
p4
I00
sVid
p5
I110935333
sVprofile_background_image_url_https
p6
Vhttps://abs.twimg.com/images/themes/theme4/bg.gif
p7
sVverified
p8
I00
sVprofile_text_color
p9
V3C3940
p10
sVmuting
p11
NsVprofile_image_url_https
p12
Vhttps://pbs.twimg.com/profile_images/455675191528415232/oSsPHRKN_normal.jpeg
p13
sVprofile_sidebar_fill_color
p14
V95E8EC
p15
sVentities
p16
(dp17
Vurl
p18
(dp19
Vurls
p20
(lp21
(dp22
g18
Vhttp://t.co/WTXdLk9DZE
p23
sVindices
p24
(lp25
I0
aI22
asVexpanded_url
p26
Vhttp://mamushka2012.wordpress.com/
p27
sVdisplay_url
p28
Vmamushka2012.wordpress.com
p29
sassVdescription
p30
(dp31
g20
(lp32
sssVfollowers_count
p33
I429
sVprofile_sidebar_border_color
p34
V5ED4DC
p35
sVid_str
p36
V110935333
p37
sVprofile_background_color
p38
V0099B9
p39
sVlisted_count
p40
I2
sVstatus
p41
(dp42
Vlang
p43
Ven
p44
sVfavorited
p45
I00
sg16
(dp46
Vsymbols
p47
(lp48
sVuser_mentions
p49
(lp50
(dp51
g5
I585372692
sg24
(lp52
I0
aI9
asg36
V585372692
p53
sVscreen_name
p54
VMa3Route
p55
sVname
p56
VMa3Route
p57
sasVhashtags
p58
(lp59
sg20
(lp60
ssVcontributors
p61
NsVtruncated
p62
I00
sVtext
p63
V@Ma3route Msa road is slow but moving
p64
sVcreated_at
p65
VFri Jun 06 16:00:25 +0000 2014
p66
sVretweeted
p67
I00
sVin_reply_to_status_id_str
p68
NsVcoordinates
p69
NsVin_reply_to_user_id_str
p70
V585372692
p71
sVsource
p72
V<a href="https://mobile.twitter.com" rel="nofollow">Mobile Web (M5)</a>
p73
sVin_reply_to_status_id
p74
NsVin_reply_to_screen_name
p75
VMa3Route
p76
sg36
V474943905679429632
p77
sVplace
p78
NsVretweet_count
p79
I0
sVgeo
p80
Nsg5
I474943905679429632
sVfavorite_count
p81
I0
sVin_reply_to_user_id
p82
I585372692
ssVis_translation_enabled
p83
I00
sVutc_offset
p84
I10800
sVstatuses_count
p85
I8610
sg30
VBeautiful, happy, too optimistic about life #teamJesus #TeamUnited
p86
sVfriends_count
p87
I463
sVlocation
p88
VNairobi Kenya
p89
sVprofile_link_color
p90
V0099B9
p91
sVprofile_image_url
p92
Vhttp://pbs.twimg.com/profile_images/455675191528415232/oSsPHRKN_normal.jpeg
p93
sVfollowing
p94
NsVgeo_enabled
p95
I01
sVprofile_banner_url
p96
Vhttps://pbs.twimg.com/profile_banners/110935333/1385200932
p97
sVprofile_background_image_url
p98
Vhttp://abs.twimg.com/images/themes/theme4/bg.gif
p99
sg54
VBtsonie
p100
sg43
Ven
p101
sVprofile_background_tile
p102
I00
sVfavourites_count
p103
I408
sg56
VBeth
p104
sVnotifications
p105
Nsg18
Vhttp://t.co/WTXdLk9DZE
p106
sg65
VWed Feb 03 07:45:17 +0000 2010
p107
sVcontributors_enabled
p108
I00
sVtime_zone
p109
VNairobi
p110
sVprotected
p111
I00
sVdefault_profile
p112
I00
sVis_translator
p113
I00
sa(dp114
g2
Nsg3
I01
sg4
I00
sg5
I357638075
sg6
Vhttps://abs.twimg.com/images/themes/theme12/bg.gif
p115
sg8
I00
sg9
V0C3E53
p116
sg11
Nsg12
Vhttps://pbs.twimg.com/profile_images/464318793481977856/2g5IVTGm_normal.jpeg
p117
sg14
VFFF7CC
p118
sg16
(dp119
g18
(dp120
g20
(lp121
(dp122
g18
Vhttp://t.co/njuJRoTy7b
p123
sg24
(lp124
I0
aI22
asg26
Vhttp://www.standardmedia.co.ke
p125
sg28
Vstandardmedia.co.ke
p126
sassg30
(dp127
g20
(lp128
sssg33
I6451
sg34
VF2E195
p129
sg36
V357638075
p130
sg38
VBADFCD
p131
sg40
I9
sg41
(dp132
g43
Ven
p133
sg45
I00
sg16
(dp134
g47
(lp135
sg49
(lp136
sg58
(lp137
sg20
(lp138
ssg61
Nsg62
I00
sg63
VWhere is our phone etiquette??? especially in hospitals.
p139
sg65
VSat Jun 07 11:13:45 +0000 2014
p140
sg67
I00
sg68
Nsg69
Nsg70
Nsg72
V<a href="http://twitter.com/download/iphone" rel="nofollow">Twitter for iPhone</a>
p141
sg74
Nsg75
Nsg36
V475234151403356160
p142
sg78
Nsg79
I0
sg80
Nsg5
I475234151403356160
sg81
I0
sg82
Nssg83
I00
sg84
I7200
sg85
I3484
sg30
VTV News Anchor and Reporter at the Standard media group. Wife and Mother. Expressed herein are MY views and not that of my employers. Smile :) its sunnah!
p143
sg87
I2605
sg88
VNairobi 
p144
sg90
VFF0000
p145
sg92
Vhttp://pbs.twimg.com/profile_images/464318793481977856/2g5IVTGm_normal.jpeg
p146
sg94
Nsg95
I01
sg96
Vhttps://pbs.twimg.com/profile_banners/357638075/1355342823
p147
sg98
Vhttp://abs.twimg.com/images/themes/theme12/bg.gif
p148
sg54
VNajmmer
p149
sg43
Ven
p150
sg102
I00
sg103
I219
sg56
VNajma Ismail
p151
sg105
Nsg18
Vhttp://t.co/njuJRoTy7b
p152
sg65
VThu Aug 18 17:41:01 +0000 2011
p153
sg108
I00
sg109
VParis
p154
sg111
I00
sg112
I00
sg113
I00
sa(dp155
g2
Nsg3
I01
sg4
I00
sg5
I167384996
sg6
Vhttps://abs.twimg.com/images/themes/theme10/bg.gif
p156
sg8
I00
sg9
V3D1957
p157
sg11
Nsg12
Vhttps://pbs.twimg.com/profile_images/473830468744273920/YD7AvOMk_normal.jpeg
p158
sg14
V7AC3EE
p159
sg16
(dp160
g30
(dp161
g20
(lp162
(dp163
g18
Vhttp://t.co/XOJ540Bugh
p164
sg24
(lp165
I47
aI69
asg26
Vhttp://mdundo.com/a/342
p166
sg28
Vmdundo.com/a/342
p167
sasssg33
I20391
sg34
V65B0DA
p168
sg36
V167384996
p169
sg38
V642D8B
p170
sg40
I22
sg41
(dp171
g43
Ven
p172
sg45
I00
sg16
(dp173
g47
(lp174
sg49
(lp175
sg58
(lp176
sg20
(lp177
ssg61
Nsg62
I00
sg63
Va shoe shiner with a masters degree?the government should help this lady asap
p178
sg65
VSat Jun 07 18:49:53 +0000 2014
p179
sg67
I00
sg68
Nsg69
Nsg70
Nsg72
V<a href="https://mobile.twitter.com" rel="nofollow">Mobile Web (M2)</a>
p180
sg74
Nsg75
Nsg36
V475348938740871168
p181
sg78
Nsg79
I0
sg80
Nsg5
I475348938740871168
sg81
I0
sg82
Nssg83
I00
sg84
I10800
sg85
I9294
sg30
VGod first...Singer!Download my songs for free  http://t.co/XOJ540Bugh.  Beauty therapist.Guitarist. @Musikalekenya
p182
sg87
I21985
sg88
Vnairobi
p183
sg90
VFF0000
p184
sg92
Vhttp://pbs.twimg.com/profile_images/473830468744273920/YD7AvOMk_normal.jpeg
p185
sg94
Nsg95
I01
sg98
Vhttp://abs.twimg.com/images/themes/theme10/bg.gif
p186
sg54
Vtender18
p187
sg43
Ven
p188
sg102
I01
sg103
I16
sg56
VTender Ooko
p189
sg105
Nsg18
Nsg65
VFri Jul 16 13:09:33 +0000 2010
p190
sg108
I00
sg109
VNairobi
p191
sg111
I00
sg112
I00
sg113
I00
sa.