(lp0
(dp1
Vfollow_request_sent
p2
NsVprofile_use_background_image
p3
I01
sVdefault_profile_image
p4
I00
sVid
p5
I42857158
sVprofile_background_image_url_https
p6
Vhttps://abs.twimg.com/images/themes/theme4/bg.gif
p7
sVverified
p8
I00
sVprofile_text_color
p9
V3C3940
p10
sVmuting
p11
NsVprofile_image_url_https
p12
Vhttps://pbs.twimg.com/profile_images/456011982475632640/GnBRcaiL_normal.jpeg
p13
sVprofile_sidebar_fill_color
p14
V95E8EC
p15
sVentities
p16
(dp17
Vurl
p18
(dp19
Vurls
p20
(lp21
(dp22
g18
Vhttp://t.co/9iqAoKiJWk
p23
sVindices
p24
(lp25
I0
aI22
asVexpanded_url
p26
Vhttp://sparklean.site.co.ke
p27
sVdisplay_url
p28
Vsparklean.site.co.ke
p29
sassVdescription
p30
(dp31
g20
(lp32
sssVfollowers_count
p33
I205
sVprofile_sidebar_border_color
p34
V5ED4DC
p35
sVid_str
p36
V42857158
p37
sVprofile_background_color
p38
V0099B9
p39
sVlisted_count
p40
I0
sVstatus
p41
(dp42
Vcontributors
p43
NsVtruncated
p44
I00
sVtext
p45
VRT @SpakleanKenya: Sofa cleaning @Jacaranda Gardens.. We are the #kleanfreaks http://t.co/7A0VGn1Rda
p46
sVin_reply_to_status_id
p47
Nsg5
I472826921982885888
sVfavorite_count
p48
I0
sVsource
p49
V<a href="http://twitter.com/download/android" rel="nofollow">Twitter for Android</a>
p50
sVretweeted
p51
I00
sVcoordinates
p52
Nsg16
(dp53
Vsymbols
p54
(lp55
sVuser_mentions
p56
(lp57
(dp58
g5
I564880208
sg24
(lp59
I3
aI17
asg36
V564880208
p60
sVscreen_name
p61
VSpakleanKenya
p62
sVname
p63
VSpaklean
p64
sa(dp65
g5
I2159866602
sg24
(lp66
I33
aI43
asg36
V2159866602
p67
sg61
Vjacaranda
p68
sg63
Vmarcela carvajal zam
p69
sasVhashtags
p70
(lp71
(dp72
g24
(lp73
I65
aI77
asg45
Vkleanfreaks
p74
sasg20
(lp75
sVmedia
p76
(lp77
(dp78
Vsource_status_id_str
p79
V472776477906190337
p80
sg26
Vhttp://twitter.com/SpakleanKenya/status/472776477906190337/photo/1
p81
sg28
Vpic.twitter.com/7A0VGn1Rda
p82
sg18
Vhttp://t.co/7A0VGn1Rda
p83
sVmedia_url_https
p84
Vhttps://pbs.twimg.com/media/Bo-jsQpIYAEfjYc.jpg
p85
sVsource_status_id
p86
I472776477906190337
sg36
V472776466674245633
p87
sVsizes
p88
(dp89
Vlarge
p90
(dp91
Vh
p92
I480
sVresize
p93
Vfit
p94
sVw
p95
I480
ssVsmall
p96
(dp97
g92
I340
sg93
Vfit
p98
sg95
I340
ssVmedium
p99
(dp100
g92
I480
sg93
Vfit
p101
sg95
I480
ssVthumb
p102
(dp103
g92
I150
sg93
Vcrop
p104
sg95
I150
sssg24
(lp105
I78
aI100
asVtype
p106
Vphoto
p107
sg5
I472776466674245633
sVmedia_url
p108
Vhttp://pbs.twimg.com/media/Bo-jsQpIYAEfjYc.jpg
p109
sassVin_reply_to_screen_name
p110
Nsg36
V472826921982885888
p111
sVretweet_count
p112
I1
sVin_reply_to_user_id
p113
NsVfavorited
p114
I00
sVretweeted_status
p115
(dp116
g43
Nsg44
I00
sg45
VSofa cleaning @Jacaranda Gardens.. We are the #kleanfreaks http://t.co/7A0VGn1Rda
p117
sg47
Nsg5
I472776477906190337
sg48
I0
sg49
V<a href="http://twitter.com/download/android" rel="nofollow">Twitter for Android</a>
p118
sg51
I00
sg52
Nsg16
(dp119
g54
(lp120
sg56
(lp121
(dp122
g5
I2159866602
sg24
(lp123
I14
aI24
asg36
V2159866602
p124
sg61
Vjacaranda
p125
sg63
Vmarcela carvajal zam
p126
sasg70
(lp127
(dp128
g24
(lp129
I46
aI58
asg45
Vkleanfreaks
p130
sasg20
(lp131
sg76
(lp132
(dp133
g26
Vhttp://twitter.com/SpakleanKenya/status/472776477906190337/photo/1
p134
sg28
Vpic.twitter.com/7A0VGn1Rda
p135
sg18
Vhttp://t.co/7A0VGn1Rda
p136
sg84
Vhttps://pbs.twimg.com/media/Bo-jsQpIYAEfjYc.jpg
p137
sg36
V472776466674245633
p138
sg88
(dp139
g90
(dp140
g92
I480
sg93
Vfit
p141
sg95
I480
ssg96
(dp142
g92
I340
sg93
Vfit
p143
sg95
I340
ssg99
(dp144
g92
I480
sg93
Vfit
p145
sg95
I480
ssg102
(dp146
g92
I150
sg93
Vcrop
p147
sg95
I150
sssg24
(lp148
I59
aI81
asg106
Vphoto
p149
sg5
I472776466674245633
sg108
Vhttp://pbs.twimg.com/media/Bo-jsQpIYAEfjYc.jpg
p150
sassg110
Nsg36
V472776477906190337
p151
sg112
I1
sg113
Nsg114
I00
sVgeo
p152
NsVin_reply_to_user_id_str
p153
NsVpossibly_sensitive
p154
I00
sVlang
p155
Ven
p156
sVcreated_at
p157
VSat May 31 16:27:50 +0000 2014
p158
sVin_reply_to_status_id_str
p159
NsVplace
p160
Nssg152
Nsg153
Nsg154
I00
sg155
Ven
p161
sg157
VSat May 31 19:48:17 +0000 2014
p162
sg159
Nsg160
NssVis_translation_enabled
p163
I00
sVutc_offset
p164
I10800
sVstatuses_count
p165
I284
sg30
VCool, Calm & Collected
p166
sVfriends_count
p167
I498
sVlocation
p168
VNairobi
p169
sVprofile_link_color
p170
V0099B9
p171
sVprofile_image_url
p172
Vhttp://pbs.twimg.com/profile_images/456011982475632640/GnBRcaiL_normal.jpeg
p173
sVfollowing
p174
NsVgeo_enabled
p175
I01
sVprofile_banner_url
p176
Vhttps://pbs.twimg.com/profile_banners/42857158/1386671207
p177
sVprofile_background_image_url
p178
Vhttp://abs.twimg.com/images/themes/theme4/bg.gif
p179
sg61
VMartoClassmate
p180
sg155
Ven
p181
sVprofile_background_tile
p182
I00
sVfavourites_count
p183
I45
sg63
VMartin Mwenda
p184
sVnotifications
p185
Nsg18
Vhttp://t.co/9iqAoKiJWk
p186
sg157
VWed May 27 10:47:10 +0000 2009
p187
sVcontributors_enabled
p188
I00
sVtime_zone
p189
VNairobi
p190
sVprotected
p191
I00
sVdefault_profile
p192
I00
sVis_translator
p193
I00
sa.