(lp0
(dp1
Vfollow_request_sent
p2
NsVprofile_use_background_image
p3
I01
sVdefault_profile_image
p4
I00
sVid
p5
I310366496
sVprofile_background_image_url_https
p6
Vhttps://abs.twimg.com/images/themes/theme1/bg.png
p7
sVverified
p8
I00
sVprofile_text_color
p9
V333333
p10
sVmuting
p11
NsVprofile_image_url_https
p12
Vhttps://pbs.twimg.com/profile_images/471325707860467713/kjsPOg9j_normal.jpeg
p13
sVprofile_sidebar_fill_color
p14
VDDEEF6
p15
sVentities
p16
(dp17
Vdescription
p18
(dp19
Vurls
p20
(lp21
sssVfollowers_count
p22
I55
sVprofile_sidebar_border_color
p23
VC0DEED
p24
sVid_str
p25
V310366496
p26
sVprofile_background_color
p27
VC0DEED
p28
sVlisted_count
p29
I0
sVstatus
p30
(dp31
Vlang
p32
Vtl
p33
sVfavorited
p34
I00
sg16
(dp35
Vsymbols
p36
(lp37
sVuser_mentions
p38
(lp39
(dp40
g5
I22754762
sVindices
p41
(lp42
I0
aI16
asg25
V22754762
p43
sVscreen_name
p44
VTerryanneChebet
p45
sVname
p46
VTerryanne Chebet 
p47
sasVhashtags
p48
(lp49
(dp50
g41
(lp51
I33
aI46
asVtext
p52
Vthebizcentre
p53
sasg20
(lp54
ssVcontributors
p55
NsVtruncated
p56
I00
sg52
V@TerryanneChebet hiyo watch !!!! #thebizcentre
p57
sVcreated_at
p58
VWed Apr 09 18:25:16 +0000 2014
p59
sVretweeted
p60
I00
sVin_reply_to_status_id_str
p61
NsVcoordinates
p62
NsVin_reply_to_user_id_str
p63
V22754762
p64
sVsource
p65
V<a href="http://twitter.com/download/iphone" rel="nofollow">Twitter for iPhone</a>
p66
sVin_reply_to_status_id
p67
NsVin_reply_to_screen_name
p68
VTerryanneChebet
p69
sg25
V453961860065542144
p70
sVplace
p71
NsVretweet_count
p72
I0
sVgeo
p73
Nsg5
I453961860065542144
sVfavorite_count
p74
I0
sVin_reply_to_user_id
p75
I22754762
ssVis_translation_enabled
p76
I00
sVutc_offset
p77
NsVstatuses_count
p78
I143
sg18
VManaging Director, Tanduiya Group of companies and Financial Analyst Barclays Bank
p79
sVfriends_count
p80
I295
sVlocation
p81
VNairobi, Kenya
p82
sVprofile_link_color
p83
V0084B4
p84
sVprofile_image_url
p85
Vhttp://pbs.twimg.com/profile_images/471325707860467713/kjsPOg9j_normal.jpeg
p86
sVfollowing
p87
NsVgeo_enabled
p88
I01
sVprofile_banner_url
p89
Vhttps://pbs.twimg.com/profile_banners/310366496/1401207780
p90
sVprofile_background_image_url
p91
Vhttp://abs.twimg.com/images/themes/theme1/bg.png
p92
sg44
Vtuitoekjos
p93
sg32
Ven
p94
sVprofile_background_tile
p95
I00
sVfavourites_count
p96
I2
sg46
VJosephat Tuitoek
p97
sVnotifications
p98
NsVurl
p99
Nsg58
VFri Jun 03 16:36:50 +0000 2011
p100
sVcontributors_enabled
p101
I00
sVtime_zone
p102
NsVprotected
p103
I00
sVdefault_profile
p104
I01
sVis_translator
p105
I00
sa(dp106
g2
Nsg3
I01
sg4
I00
sg5
I305190884
sg6
Vhttps://abs.twimg.com/images/themes/theme1/bg.png
p107
sg8
I00
sg9
V333333
p108
sg11
Nsg12
Vhttps://pbs.twimg.com/profile_images/2679193319/9da8b0cd0c844edbd912b5479389520c_normal.png
p109
sg14
VDDEEF6
p110
sg16
(dp111
g18
(dp112
g20
(lp113
sssg22
I74
sg23
VC0DEED
p114
sg25
V305190884
p115
sg27
VC0DEED
p116
sg29
I1
sg30
(dp117
g32
Ven
p118
sg34
I00
sg16
(dp119
g36
(lp120
sg38
(lp121
sg48
(lp122
sg20
(lp123
ssg55
Nsg56
I00
sg52
VCannot say how proud I am for our first lady. That wa the true representation of determination. Congrats
p124
sg58
VSun Apr 13 16:34:37 +0000 2014
p125
sg60
I00
sg61
Nsg62
Nsg63
Nsg65
V<a href="http://twitter.com/download/android" rel="nofollow">Twitter for Android</a>
p126
sg67
Nsg68
Nsg25
V455383566286086144
p127
sg71
Nsg72
I0
sg73
Nsg5
I455383566286086144
sg74
I0
sg75
Nssg76
I00
sg77
I10800
sg78
I343
sg18
V
p128
sg80
I232
sg81
VNairobi
p129
sg83
V0084B4
p130
sg85
Vhttp://pbs.twimg.com/profile_images/2679193319/9da8b0cd0c844edbd912b5479389520c_normal.png
p131
sg87
Nsg88
I01
sg91
Vhttp://abs.twimg.com/images/themes/theme1/bg.png
p132
sg44
Vangelokiogora
p133
sg32
Ven
p134
sg95
I00
sg96
I5
sg46
VAngelo K. Gitonga
p135
sg98
Nsg99
Nsg58
VWed May 25 20:05:18 +0000 2011
p136
sg101
I00
sg102
VNairobi
p137
sg103
I00
sg104
I01
sg105
I00
sa(dp138
g2
Nsg3
I01
sg4
I00
sg5
I62542575
sg6
Vhttps://pbs.twimg.com/profile_background_images/226982323/edbg.jpg
p139
sg8
I00
sg9
V3C3940
p140
sg11
Nsg12
Vhttps://pbs.twimg.com/profile_images/378800000770997100/a4ba75e671e778c848138756d50fa43b_normal.jpeg
p141
sg14
VF7F2F7
p142
sg16
(dp143
g99
(dp144
g20
(lp145
(dp146
g99
Vhttp://t.co/hz2gFLYEvs
p147
sg41
(lp148
I0
aI22
asVexpanded_url
p149
Vhttp://www.edutchz.com
p150
sVdisplay_url
p151
Vedutchz.com
p152
sassg18
(dp153
g20
(lp154
sssg22
I190
sg23
V5ED4DC
p155
sg25
V62542575
p156
sg27
V0099B9
p157
sg29
I2
sg30
(dp158
g55
Nsg56
I00
sg52
VThat is one bad ass cat..  http://t.co/M4NStffvEn via @YouTube
p159
sg67
Nsg5
I466830368213958656
sg74
I0
sg65
V<a href="https://dev.twitter.com/docs/tfw" rel="nofollow">Twitter for Websites</a>
p160
sg60
I00
sg62
Nsg16
(dp161
g36
(lp162
sg38
(lp163
(dp164
g5
I10228272
sg41
(lp165
I54
aI62
asg25
V10228272
p166
sg44
VYouTube
p167
sg46
VYouTube
p168
sasg48
(lp169
sg20
(lp170
(dp171
g99
Vhttp://t.co/M4NStffvEn
p172
sg41
(lp173
I27
aI49
asg149
Vhttp://youtu.be/C-Opm9b2WDk
p174
sg151
Vyoutu.be/C-Opm9b2WDk
p175
sassg68
Nsg25
V466830368213958656
p176
sg72
I0
sg75
Nsg34
I00
sg73
Nsg63
NsVpossibly_sensitive
p177
I00
sg32
Ven
p178
sg58
VThu May 15 06:40:07 +0000 2014
p179
sg61
Nsg71
Nssg76
I00
sg77
I10800
sg78
I2229
sg18
VICT professional, Tech enthusiast, Humorous
p180
sg80
I381
sg81
VNairobi
p181
sg83
V0099B9
p182
sg85
Vhttp://pbs.twimg.com/profile_images/378800000770997100/a4ba75e671e778c848138756d50fa43b_normal.jpeg
p183
sg87
Nsg88
I01
sg89
Vhttps://pbs.twimg.com/profile_banners/62542575/1397024391
p184
sg91
Vhttp://pbs.twimg.com/profile_background_images/226982323/edbg.jpg
p185
sg44
Vedutchz
p186
sg32
Ven
p187
sg95
I00
sg96
I1
sg46
VEdwin Kyangangu
p188
sg98
Nsg99
Vhttp://t.co/hz2gFLYEvs
p189
sg58
VMon Aug 03 15:41:22 +0000 2009
p190
sg101
I00
sg102
VNairobi
p191
sg103
I00
sg104
I00
sg105
I00
sa(dp192
g2
Nsg3
I01
sg4
I00
sg5
I214496148
sg6
Vhttps://abs.twimg.com/images/themes/theme1/bg.png
p193
sg8
I00
sg9
V333333
p194
sg11
Nsg12
Vhttps://pbs.twimg.com/profile_images/435444918405038081/psG6P9-6_normal.jpeg
p195
sg14
VDDEEF6
p196
sg16
(dp197
g99
(dp198
g20
(lp199
(dp200
g99
Vhttp://t.co/jlFtlwlljN
p201
sg41
(lp202
I0
aI22
asg149
Vhttp://www.facebook.com/jatelo
p203
sg151
Vfacebook.com/jatelo
p204
sassg18
(dp205
g20
(lp206
sssg22
I621
sg23
VC0DEED
p207
sg25
V214496148
p208
sg27
VC0DEED
p209
sg29
I4
sg30
(dp210
g55
Nsg56
I00
sg52
VRT @FourFourTom: Diego Simeone can't be praised enough. A goal down vs Barca with 2 of his best players off injured and a draw needed. Atle\u2026
p211
sg67
Nsg5
I467729597363007488
sg74
I0
sg65
V<a href="http://twitter.com/download/android" rel="nofollow">Twitter for Android</a>
p212
sg60
I00
sg62
Nsg16
(dp213
g36
(lp214
sg38
(lp215
(dp216
g5
I298839575
sg41
(lp217
I3
aI15
asg25
V298839575
p218
sg44
VFourFourTom
p219
sg46
VTom
p220
sasg48
(lp221
sg20
(lp222
ssg68
Nsg25
V467729597363007488
p223
sg72
I450
sg75
Nsg34
I00
sVretweeted_status
p224
(dp225
g32
Ven
p226
sg34
I00
sg16
(dp227
g36
(lp228
sg38
(lp229
sg48
(lp230
sg20
(lp231
ssg55
Nsg56
I00
sg52
VDiego Simeone can't be praised enough. A goal down vs Barca with 2 of his best players off injured and a draw needed. Atleti are champions.
p232
sg58
VSat May 17 17:54:13 +0000 2014
p233
sg60
I00
sg61
Nsg62
Nsg63
Nsg65
V<a href="http://twitter.com" rel="nofollow">Twitter Web Client</a>
p234
sg67
Nsg68
Nsg25
V467724787025207296
p235
sg71
Nsg72
I450
sg73
Nsg5
I467724787025207296
sg74
I115
sg75
Nssg73
Nsg63
Nsg32
Ven
p236
sg58
VSat May 17 18:13:20 +0000 2014
p237
sg61
Nsg71
Nssg76
I00
sg77
Nsg78
I3947
sg18
VRaila Odinga Enthusiast
p238
sg80
I882
sg81
VNairobi
p239
sg83
V0084B4
p240
sg85
Vhttp://pbs.twimg.com/profile_images/435444918405038081/psG6P9-6_normal.jpeg
p241
sg87
Nsg88
I01
sg89
Vhttps://pbs.twimg.com/profile_banners/214496148/1372532853
p242
sg91
Vhttp://abs.twimg.com/images/themes/theme1/bg.png
p243
sg44
VJateloKirimi
p244
sg32
Ven
p245
sg95
I00
sg96
I8
sg46
V\uf8eb Keith Kirimi \uf8eb
p246
sg98
Nsg99
Vhttp://t.co/jlFtlwlljN
p247
sg58
VThu Nov 11 15:00:33 +0000 2010
p248
sg101
I00
sg102
Nsg103
I00
sg104
I01
sg105
I00
sa(dp249
g2
Nsg3
I01
sg4
I00
sg5
I69325347
sg6
Vhttps://pbs.twimg.com/profile_background_images/605625777/m83786um7l8ccu2g0pea.jpeg
p250
sg8
I00
sg9
V3E4415
p251
sg11
Nsg12
Vhttps://pbs.twimg.com/profile_images/412295895921598465/WAoo5PBp_normal.jpeg
p252
sg14
V99CC33
p253
sg16
(dp254
g99
(dp255
g20
(lp256
(dp257
g99
Vhttp://t.co/T58xUOtBEP
p258
sg41
(lp259
I0
aI22
asg149
Vhttp://obonyo.netii.net
p260
sg151
Vobonyo.netii.net
p261
sassg18
(dp262
g20
(lp263
sssg22
I155
sg23
V829D5E
p264
sg25
V69325347
p265
sg27
V524A4A
p266
sg29
I0
sg30
(dp267
g32
Ven
p268
sg34
I00
sg16
(dp269
g36
(lp270
sg38
(lp271
(dp272
g5
I264044847
sg41
(lp273
I0
aI9
asg25
V264044847
p274
sg44
VShihachi
p275
sg46
VShihachi Makamu
p276
sasg48
(lp277
sg20
(lp278
ssg55
Nsg56
I00
sg52
V@Shihachi: Sema boss, am good. Did you want us to chat over the Skype, ama?
p279
sg58
VMon May 26 05:55:37 +0000 2014
p280
sg60
I00
sg61
Nsg62
Nsg63
V264044847
p281
sg65
V<a href="http://www.cloudhopper.com/" rel="nofollow">Cloudhopper</a>
p282
sg67
Nsg68
VShihachi
p283
sg25
V470805433612259330
p284
sg71
Nsg72
I0
sg73
Nsg5
I470805433612259330
sg74
I0
sg75
I264044847
ssg76
I00
sg77
I10800
sg78
I118
sg18
VGivin God first priority,  enthusiastic about our simple life, havin understanding that between black and white there are a million colors.
p285
sg80
I475
sg81
VNairobi, Kenya
p286
sg83
V2C53C7
p287
sg85
Vhttp://pbs.twimg.com/profile_images/412295895921598465/WAoo5PBp_normal.jpeg
p288
sg87
Nsg88
I01
sg91
Vhttp://pbs.twimg.com/profile_background_images/605625777/m83786um7l8ccu2g0pea.jpeg
p289
sg44
VIshmaelKenn
p290
sg32
Ven
p291
sg95
I01
sg96
I1
sg46
VIshmael Obonyo 
p292
sg98
Nsg99
Vhttp://t.co/T58xUOtBEP
p293
sg58
VThu Aug 27 15:52:46 +0000 2009
p294
sg101
I00
sg102
VNairobi
p295
sg103
I00
sg104
I00
sg105
I00
sa(dp296
g2
Nsg3
I01
sg4
I00
sg5
I366076664
sg6
Vhttps://abs.twimg.com/images/themes/theme5/bg.gif
p297
sg8
I00
sg9
V3E4415
p298
sg11
Nsg12
Vhttps://pbs.twimg.com/profile_images/1923797721/boeing-787-dreamliner-passagierraum_normal.jpg
p299
sg14
V99CC33
p300
sg16
(dp301
g18
(dp302
g20
(lp303
sssg22
I59
sg23
V829D5E
p304
sg25
V366076664
p305
sg27
V352726
p306
sg29
I0
sg30
(dp307
g32
Ven
p308
sg34
I00
sg16
(dp309
g36
(lp310
sg38
(lp311
sg48
(lp312
sg20
(lp313
ssg55
Nsg56
I00
sg52
VThe future is uncertain...i dont know where it will take me...wat i know...is where not to go...past expirience has taught me
p314
sg58
VTue Feb 25 13:37:08 +0000 2014
p315
sg60
I00
sg61
Nsg62
Nsg63
Nsg65
V<a href="http://twitter.com/download/android" rel="nofollow">Twitter for Android</a>
p316
sg67
Nsg68
Nsg25
V438306671925133312
p317
sg71
Nsg72
I0
sg73
Nsg5
I438306671925133312
sg74
I0
sg75
Nssg76
I00
sg77
I10800
sg78
I63
sg18
Va psychologist in the making
p318
sg80
I198
sg81
VNairobi
p319
sg83
VD02B55
p320
sg85
Vhttp://pbs.twimg.com/profile_images/1923797721/boeing-787-dreamliner-passagierraum_normal.jpg
p321
sg87
Nsg88
I01
sg91
Vhttp://abs.twimg.com/images/themes/theme5/bg.gif
p322
sg44
VVikorir
p323
sg32
Ven
p324
sg95
I00
sg96
I2
sg46
VVictor Korir
p325
sg98
Nsg99
Nsg58
VThu Sep 01 14:44:35 +0000 2011
p326
sg101
I00
sg102
VNairobi
p327
sg103
I00
sg104
I00
sg105
I00
sa(dp328
g2
Nsg3
I01
sg4
I00
sg5
I167384996
sg6
Vhttps://abs.twimg.com/images/themes/theme10/bg.gif
p329
sg8
I00
sg9
V3D1957
p330
sg11
Nsg12
Vhttps://pbs.twimg.com/profile_images/473830468744273920/YD7AvOMk_normal.jpeg
p331
sg14
V7AC3EE
p332
sg16
(dp333
g18
(dp334
g20
(lp335
(dp336
g99
Vhttp://t.co/XOJ540Bugh
p337
sg41
(lp338
I47
aI69
asg149
Vhttp://mdundo.com/a/342
p339
sg151
Vmdundo.com/a/342
p340
sasssg22
I20391
sg23
V65B0DA
p341
sg25
V167384996
p342
sg27
V642D8B
p343
sg29
I22
sg30
(dp344
g32
Ven
p345
sg34
I00
sg16
(dp346
g36
(lp347
sg38
(lp348
sg48
(lp349
sg20
(lp350
ssg55
Nsg56
I00
sg52
Va shoe shiner with a masters degree?the government should help this lady asap
p351
sg58
VSat Jun 07 18:49:53 +0000 2014
p352
sg60
I00
sg61
Nsg62
Nsg63
Nsg65
V<a href="https://mobile.twitter.com" rel="nofollow">Mobile Web (M2)</a>
p353
sg67
Nsg68
Nsg25
V475348938740871168
p354
sg71
Nsg72
I0
sg73
Nsg5
I475348938740871168
sg74
I0
sg75
Nssg76
I00
sg77
I10800
sg78
I9294
sg18
VGod first...Singer!Download my songs for free  http://t.co/XOJ540Bugh.  Beauty therapist.Guitarist. @Musikalekenya
p355
sg80
I21985
sg81
Vnairobi
p356
sg83
VFF0000
p357
sg85
Vhttp://pbs.twimg.com/profile_images/473830468744273920/YD7AvOMk_normal.jpeg
p358
sg87
Nsg88
I01
sg91
Vhttp://abs.twimg.com/images/themes/theme10/bg.gif
p359
sg44
Vtender18
p360
sg32
Ven
p361
sg95
I01
sg96
I16
sg46
VTender Ooko
p362
sg98
Nsg99
Nsg58
VFri Jul 16 13:09:33 +0000 2010
p363
sg101
I00
sg102
VNairobi
p364
sg103
I00
sg104
I00
sg105
I00
sa(dp365
g2
Nsg3
I01
sg4
I00
sg5
I127510901
sg6
Vhttps://abs.twimg.com/images/themes/theme10/bg.gif
p366
sg8
I00
sg9
V3D1957
p367
sg11
Nsg12
Vhttps://pbs.twimg.com/profile_images/1208167204/SUE_OFC_normal.jpg
p368
sg14
V7AC3EE
p369
sg16
(dp370
g18
(dp371
g20
(lp372
sssg22
I187
sg23
V65B0DA
p373
sg25
V127510901
p374
sg27
V592E78
p375
sg29
I1
sg30
(dp376
g32
Ven
p377
sg34
I00
sg16
(dp378
g36
(lp379
sg38
(lp380
(dp381
g5
I214439739
sg41
(lp382
I0
aI9
asg25
V214439739
p383
sg44
Vkarlryns
p384
sg46
Vkarl ryns
p385
sasg48
(lp386
sg20
(lp387
ssg55
Nsg56
I00
sg52
V@karlryns had fun????  ya en who? was just n the hse. nothn much
p388
sg58
VMon Oct 14 07:36:49 +0000 2013
p389
sg60
I00
sg61
V389655244608532480
p390
sg62
Nsg63
V214439739
p391
sg65
V<a href="https://dev.twitter.com/docs/tfw" rel="nofollow">Twitter for Websites</a>
p392
sg67
I389655244608532480
sg68
Vkarlryns
p393
sg25
V389656019636215809
p394
sg71
Nsg72
I0
sg73
Nsg5
I389656019636215809
sg74
I0
sg75
I214439739
ssg76
I00
sg77
Nsg78
I364
sg18
VJoin ma dream world for ya to know me better
p395
sg80
I820
sg81
VNairobi
p396
sg83
VFF0000
p397
sg85
Vhttp://pbs.twimg.com/profile_images/1208167204/SUE_OFC_normal.jpg
p398
sg87
Nsg88
I01
sg91
Vhttp://abs.twimg.com/images/themes/theme10/bg.gif
p399
sg44
VSwtkim
p400
sg32
Ven
p401
sg95
I01
sg96
I24
sg46
VSuzanne
p402
sg98
Nsg99
Nsg58
VMon Mar 29 12:51:44 +0000 2010
p403
sg101
I00
sg102
Nsg103
I00
sg104
I00
sg105
I00
sa.