(lp0
(dp1
Vfollow_request_sent
p2
NsVprofile_use_background_image
p3
I01
sVdefault_profile_image
p4
I00
sVid
p5
I1142594875
sVprofile_background_image_url_https
p6
Vhttps://abs.twimg.com/images/themes/theme1/bg.png
p7
sVverified
p8
I00
sVprofile_text_color
p9
V333333
p10
sVmuting
p11
NsVprofile_image_url_https
p12
Vhttps://pbs.twimg.com/profile_images/425978312251686912/gKGUHtfu_normal.jpeg
p13
sVprofile_sidebar_fill_color
p14
VDDEEF6
p15
sVentities
p16
(dp17
Vdescription
p18
(dp19
Vurls
p20
(lp21
sssVfollowers_count
p22
I174
sVprofile_sidebar_border_color
p23
VFFFFFF
p24
sVid_str
p25
V1142594875
p26
sVprofile_background_color
p27
VB314CC
p28
sVlisted_count
p29
I1
sVstatus
p30
(dp31
Vlang
p32
Vsl
p33
sVfavorited
p34
I00
sg16
(dp35
Vsymbols
p36
(lp37
sVuser_mentions
p38
(lp39
(dp40
g5
I918502830
sVindices
p41
(lp42
I0
aI10
asg25
V918502830
p43
sVscreen_name
p44
VAMLiveNTV
p45
sVname
p46
VAM Live
p47
sasVhashtags
p48
(lp49
sg20
(lp50
ssVcontributors
p51
NsVtruncated
p52
I00
sVtext
p53
V@AMLiveNTV MUFASA!!!! I VOTE FOR U.\u000aEMOTION TU!
p54
sVcreated_at
p55
VFri May 23 04:46:52 +0000 2014
p56
sVretweeted
p57
I00
sVin_reply_to_status_id_str
p58
NsVcoordinates
p59
(dp60
Vtype
p61
VPoint
p62
sg59
(lp63
F36.8791375
aF-1.2851744
assVin_reply_to_user_id_str
p64
V918502830
p65
sVsource
p66
V<a href="https://twitter.com/download/android" rel="nofollow">Twitter for  Android</a>
p67
sVin_reply_to_status_id
p68
NsVin_reply_to_screen_name
p69
VAMLiveNTV
p70
sg25
V469700971665563648
p71
sVplace
p72
(dp73
Vfull_name
p74
VKenya
p75
sVurl
p76
Vhttps://api.twitter.com/1.1/geo/id/17ad6a68301cd28b.json
p77
sVcountry
p78
VKenya
p79
sVplace_type
p80
Vcountry
p81
sVbounding_box
p82
(dp83
g61
VPolygon
p84
sg59
(lp85
(lp86
(lp87
F33.8904683840002
aF-4.67750416499992
aa(lp88
F41.8850191650002
aF-4.67750416499992
aa(lp89
F41.8850191650002
aF5.03037582260771
aa(lp90
F33.8904683840002
aF5.03037582260771
aaassVcontained_within
p91
(lp92
sVcountry_code
p93
VKE
p94
sVattributes
p95
(dp96
sg5
V17ad6a68301cd28b
p97
sg46
VKenya
p98
ssVretweet_count
p99
I0
sVgeo
p100
(dp101
g61
VPoint
p102
sg59
(lp103
F-1.2851744
aF36.8791375
assg5
I469700971665563648
sVfavorite_count
p104
I0
sVin_reply_to_user_id
p105
I918502830
ssVis_translation_enabled
p106
I00
sVutc_offset
p107
I10800
sVstatuses_count
p108
I791
sg18
VA member of @IcedDanceCrew @RekindleFlame and @LiquidEntertainmentArts and a designer
p109
sVfriends_count
p110
I426
sVlocation
p111
VNairobi, Kenya
p112
sVprofile_link_color
p113
V00BBFF
p114
sVprofile_image_url
p115
Vhttp://pbs.twimg.com/profile_images/425978312251686912/gKGUHtfu_normal.jpeg
p116
sVfollowing
p117
NsVgeo_enabled
p118
I01
sVprofile_banner_url
p119
Vhttps://pbs.twimg.com/profile_banners/1142594875/1390396116
p120
sVprofile_background_image_url
p121
Vhttp://abs.twimg.com/images/themes/theme1/bg.png
p122
sg44
VItsMukora
p123
sg32
Ven
p124
sVprofile_background_tile
p125
I00
sVfavourites_count
p126
I34
sg46
VOw-Livie-Ya Mukora
p127
sVnotifications
p128
Nsg76
Nsg55
VSat Feb 02 14:33:05 +0000 2013
p129
sVcontributors_enabled
p130
I00
sVtime_zone
p131
VBaghdad
p132
sVprotected
p133
I00
sVdefault_profile
p134
I00
sVis_translator
p135
I00
sa(dp136
g2
Nsg3
I01
sg4
I00
sg5
I1027829352
sg6
Vhttps://abs.twimg.com/images/themes/theme1/bg.png
p137
sg8
I00
sg9
V333333
p138
sg11
Nsg12
Vhttps://pbs.twimg.com/profile_images/436585380344000512/QncgOQOs_normal.jpeg
p139
sg14
VDDEEF6
p140
sg16
(dp141
g18
(dp142
g20
(lp143
sssg22
I773
sg23
VC0DEED
p144
sg25
V1027829352
p145
sg27
VC0DEED
p146
sg29
I1
sg30
(dp147
g51
Nsg52
I00
sg53
VWith Kamal Budhabhatti, CEO - Craft Silicon during the launch of new mobile commerce platform - Elma 2.0 at Kempinski http://t.co/t0YeotCnAZ
p148
sg68
Nsg5
I474798347875008513
sg104
I2
sg66
V<a href="http://twitter.com/download/android" rel="nofollow">Twitter for Android</a>
p149
sg57
I00
sg59
Nsg16
(dp150
g36
(lp151
sg38
(lp152
sg48
(lp153
sg20
(lp154
sVmedia
p155
(lp156
(dp157
Vexpanded_url
p158
Vhttp://twitter.com/EzekielMutua/status/474798347875008513/photo/1
p159
sVdisplay_url
p160
Vpic.twitter.com/t0YeotCnAZ
p161
sg76
Vhttp://t.co/t0YeotCnAZ
p162
sVmedia_url_https
p163
Vhttps://pbs.twimg.com/media/BpbSh6lCEAAY2nT.jpg
p164
sg25
V474798290836262912
p165
sVsizes
p166
(dp167
Vsmall
p168
(dp169
Vh
p170
I453
sVresize
p171
Vfit
p172
sVw
p173
I340
ssVlarge
p174
(dp175
g170
I816
sg171
Vfit
p176
sg173
I612
ssVmedium
p177
(dp178
g170
I800
sg171
Vfit
p179
sg173
I600
ssVthumb
p180
(dp181
g170
I150
sg171
Vcrop
p182
sg173
I150
sssg41
(lp183
I118
aI140
asg61
Vphoto
p184
sg5
I474798290836262912
sVmedia_url
p185
Vhttp://pbs.twimg.com/media/BpbSh6lCEAAY2nT.jpg
p186
sassg69
Nsg25
V474798347875008513
p187
sg99
I1
sg105
Nsg34
I00
sg100
Nsg64
NsVpossibly_sensitive
p188
I00
sg32
Ven
p189
sg55
VFri Jun 06 06:22:02 +0000 2014
p190
sg58
Nsg72
Nssg106
I00
sg107
Nsg108
I196
sg18
VInformation Secretary - Kenya
p191
sg110
I2000
sg111
VNairobi - Kenya
p192
sg113
V0084B4
p193
sg115
Vhttp://pbs.twimg.com/profile_images/436585380344000512/QncgOQOs_normal.jpeg
p194
sg117
Nsg118
I01
sg121
Vhttp://abs.twimg.com/images/themes/theme1/bg.png
p195
sg44
VEzekielMutua
p196
sg32
Ven
p197
sg125
I00
sg126
I57
sg46
VEzekiel Mutua
p198
sg128
Nsg76
Nsg55
VSat Dec 22 05:42:50 +0000 2012
p199
sg130
I00
sg131
Nsg133
I00
sg134
I01
sg135
I00
sa.