(lp0
(dp1
Vfollow_request_sent
p2
NsVprofile_use_background_image
p3
I01
sVdefault_profile_image
p4
I00
sVid
p5
I438072681
sVprofile_background_image_url_https
p6
Vhttps://pbs.twimg.com/profile_background_images/378800000076990704/e68e4178d81ce46031e1ef6010bc72d1.jpeg
p7
sVverified
p8
I00
sVprofile_text_color
p9
V333333
p10
sVmuting
p11
NsVprofile_image_url_https
p12
Vhttps://pbs.twimg.com/profile_images/378800000858798301/rff6cQwo_normal.jpeg
p13
sVprofile_sidebar_fill_color
p14
VDDEEF6
p15
sVentities
p16
(dp17
Vurl
p18
(dp19
Vurls
p20
(lp21
(dp22
g18
Vhttp://t.co/jLsiV9j8ns
p23
sVindices
p24
(lp25
I0
aI22
asVexpanded_url
p26
Vhttp://www.djsadic.com
p27
sVdisplay_url
p28
Vdjsadic.com
p29
sassVdescription
p30
(dp31
g20
(lp32
sssVfollowers_count
p33
I5183
sVprofile_sidebar_border_color
p34
VFFFFFF
p35
sVid_str
p36
V438072681
p37
sVprofile_background_color
p38
VC0DEED
p39
sVlisted_count
p40
I7
sVstatus
p41
(dp42
Vlang
p43
Ven
p44
sVfavorited
p45
I00
sg16
(dp46
Vsymbols
p47
(lp48
sVuser_mentions
p49
(lp50
sVhashtags
p51
(lp52
sg20
(lp53
ssVcontributors
p54
NsVtruncated
p55
I00
sVtext
p56
VThe first limitations we must overcome are those we place on ourselves.
p57
sVcreated_at
p58
VWed May 28 06:44:50 +0000 2014
p59
sVretweeted
p60
I00
sVin_reply_to_status_id_str
p61
NsVcoordinates
p62
NsVin_reply_to_user_id_str
p63
NsVsource
p64
V<a href="http://www.facebook.com/twitter" rel="nofollow">Facebook</a>
p65
sVin_reply_to_status_id
p66
NsVin_reply_to_screen_name
p67
Nsg36
V471542595739344896
p68
sVplace
p69
NsVretweet_count
p70
I1
sVgeo
p71
Nsg5
I471542595739344896
sVfavorite_count
p72
I0
sVin_reply_to_user_id
p73
NssVis_translation_enabled
p74
I00
sVutc_offset
p75
I-18000
sVstatuses_count
p76
I5613
sg30
VClub 3:16 The Coolest Christian Hang Out. Every Sunday From 2-7pm At N-Tyce Restaurant Leon House 2nd Floor (Tom Mboya Street) Part Of The Genius ENT. Group \u2122
p77
sVfriends_count
p78
I4430
sVlocation
p79
VNairobi,Kenya
p80
sVprofile_link_color
p81
V0084B4
p82
sVprofile_image_url
p83
Vhttp://pbs.twimg.com/profile_images/378800000858798301/rff6cQwo_normal.jpeg
p84
sVfollowing
p85
NsVgeo_enabled
p86
I01
sVprofile_banner_url
p87
Vhttps://pbs.twimg.com/profile_banners/438072681/1386772980
p88
sVprofile_background_image_url
p89
Vhttp://pbs.twimg.com/profile_background_images/378800000076990704/e68e4178d81ce46031e1ef6010bc72d1.jpeg
p90
sVscreen_name
p91
VClub316Kenya
p92
sg43
Ven
p93
sVprofile_background_tile
p94
I01
sVfavourites_count
p95
I13
sVname
p96
VClub 3:16 Hangout
p97
sVnotifications
p98
Nsg18
Vhttp://t.co/jLsiV9j8ns
p99
sg58
VFri Dec 16 04:37:25 +0000 2011
p100
sVcontributors_enabled
p101
I00
sVtime_zone
p102
VCentral Time (US & Canada)
p103
sVprotected
p104
I00
sVdefault_profile
p105
I00
sVis_translator
p106
I00
sa(dp107
g2
Nsg3
I01
sg4
I00
sg5
I540863704
sg6
Vhttps://pbs.twimg.com/profile_background_images/378800000104353546/6b64a5ed8097e165a82c7774bb8d63f0.jpeg
p108
sg8
I00
sg9
V3E4415
p109
sg11
Nsg12
Vhttps://pbs.twimg.com/profile_images/1993014387/par_normal.jpg
p110
sg14
V99CC33
p111
sg16
(dp112
g30
(dp113
g20
(lp114
sssg33
I54
sg34
VFFFFFF
p115
sg36
V540863704
p116
sg38
V352726
p117
sg40
I0
sg41
(dp118
g43
Vtl
p119
sg45
I00
sg16
(dp120
g47
(lp121
sg49
(lp122
(dp123
g5
I336459562
sg24
(lp124
I0
aI10
asg36
V336459562
p125
sg91
VKimathi__
p126
sg96
VCounsel Wachira.
p127
sasg51
(lp128
sg20
(lp129
ssg54
Nsg55
I00
sg56
V@Kimathi__ hahaha kali
p130
sg58
VThu Nov 07 05:25:52 +0000 2013
p131
sg60
I00
sg61
V398319427998846976
p132
sg62
Nsg63
V336459562
p133
sg64
V<a href="http://twitter.com" rel="nofollow">Twitter Web Client</a>
p134
sg66
I398319427998846976
sg67
VKimathi__
p135
sg36
V398320372921036800
p136
sg69
Nsg70
I0
sg71
Nsg5
I398320372921036800
sg72
I0
sg73
I336459562
ssg74
I00
sg75
I10800
sg76
I187
sg30
Vi'm a simple young guy, very ambitious in life...likes socializing and making lots of friends....but holds his dignity high.
p137
sg78
I175
sg79
Vnairobi, kenya
p138
sg81
VD02B55
p139
sg83
Vhttp://pbs.twimg.com/profile_images/1993014387/par_normal.jpg
p140
sg85
Nsg86
I01
sg87
Vhttps://pbs.twimg.com/profile_banners/540863704/1371307658
p141
sg89
Vhttp://pbs.twimg.com/profile_background_images/378800000104353546/6b64a5ed8097e165a82c7774bb8d63f0.jpeg
p142
sg91
VPatricpart
p143
sg43
Ven
p144
sg94
I00
sg95
I1
sg96
VPartoh
p145
sg98
Nsg18
Nsg58
VFri Mar 30 14:32:48 +0000 2012
p146
sg101
I00
sg102
VNairobi
p147
sg104
I00
sg105
I00
sg106
I00
sa.