(lp0
(dp1
Vfollow_request_sent
p2
NsVprofile_use_background_image
p3
I01
sVdefault_profile_image
p4
I00
sVid
p5
I403506826
sVprofile_background_image_url_https
p6
Vhttps://abs.twimg.com/images/themes/theme1/bg.png
p7
sVverified
p8
I00
sVprofile_text_color
p9
V333333
p10
sVmuting
p11
NsVprofile_image_url_https
p12
Vhttps://pbs.twimg.com/profile_images/455683167513763840/i1AvHBNM_normal.jpeg
p13
sVprofile_sidebar_fill_color
p14
VDDEEF6
p15
sVentities
p16
(dp17
Vurl
p18
(dp19
Vurls
p20
(lp21
(dp22
g18
Vhttp://t.co/CEPzSTvQPP
p23
sVindices
p24
(lp25
I0
aI22
asVexpanded_url
p26
Vhttp://www.rashidcreative.com
p27
sVdisplay_url
p28
Vrashidcreative.com
p29
sassVdescription
p30
(dp31
g20
(lp32
sssVfollowers_count
p33
I60
sVprofile_sidebar_border_color
p34
VC0DEED
p35
sVid_str
p36
V403506826
p37
sVprofile_background_color
p38
VC0DEED
p39
sVlisted_count
p40
I0
sVstatus
p41
(dp42
Vlang
p43
Ven
p44
sVfavorited
p45
I00
sg16
(dp46
Vsymbols
p47
(lp48
sVuser_mentions
p49
(lp50
(dp51
g5
I127628600
sg24
(lp52
I0
aI8
asg36
V127628600
p53
sVscreen_name
p54
VDjHunky
p55
sVname
p56
VDJHUNKY
p57
sasVhashtags
p58
(lp59
sg20
(lp60
ssVcontributors
p61
NsVtruncated
p62
I00
sVtext
p63
V@DjHunky same here bro
p64
sVcreated_at
p65
VFri Mar 21 15:00:41 +0000 2014
p66
sVretweeted
p67
I00
sVin_reply_to_status_id_str
p68
V447024505312260096
p69
sVcoordinates
p70
NsVin_reply_to_user_id_str
p71
V127628600
p72
sVsource
p73
V<a href="http://twitter.com/download/android" rel="nofollow">Twitter for Android</a>
p74
sVin_reply_to_status_id
p75
I447024505312260096
sVin_reply_to_screen_name
p76
VDjHunky
p77
sg36
V447025006154104832
p78
sVplace
p79
NsVretweet_count
p80
I0
sVgeo
p81
Nsg5
I447025006154104832
sVfavorite_count
p82
I0
sVin_reply_to_user_id
p83
I127628600
ssVis_translation_enabled
p84
I00
sVutc_offset
p85
I10800
sVstatuses_count
p86
I97
sg30
VYouth activist who advocates for women empowerment, women rights, gender parity, and human rights in the Horn of Africa...
p87
sVfriends_count
p88
I313
sVlocation
p89
VNairobi, Kenya
p90
sVprofile_link_color
p91
V0084B4
p92
sVprofile_image_url
p93
Vhttp://pbs.twimg.com/profile_images/455683167513763840/i1AvHBNM_normal.jpeg
p94
sVfollowing
p95
NsVgeo_enabled
p96
I01
sVprofile_banner_url
p97
Vhttps://pbs.twimg.com/profile_banners/403506826/1390824241
p98
sVprofile_background_image_url
p99
Vhttp://abs.twimg.com/images/themes/theme1/bg.png
p100
sg54
VRash2030
p101
sg43
Ven
p102
sVprofile_background_tile
p103
I00
sVfavourites_count
p104
I8
sg56
VRashid Haji
p105
sVnotifications
p106
Nsg18
Vhttp://t.co/CEPzSTvQPP
p107
sg65
VWed Nov 02 16:01:33 +0000 2011
p108
sVcontributors_enabled
p109
I00
sVtime_zone
p110
VBaghdad
p111
sVprotected
p112
I00
sVdefault_profile
p113
I01
sVis_translator
p114
I00
sa(dp115
g2
Nsg3
I01
sg4
I00
sg5
I811513428
sg6
Vhttps://abs.twimg.com/images/themes/theme1/bg.png
p116
sg8
I00
sg9
V333333
p117
sg11
Nsg12
Vhttps://pbs.twimg.com/profile_images/465361156753076224/O8UjmxTJ_normal.jpeg
p118
sg14
VDDEEF6
p119
sg16
(dp120
g18
(dp121
g20
(lp122
(dp123
g18
Vhttp://t.co/IWAZE6x10r
p124
sg24
(lp125
I0
aI22
asg26
Vhttp://www.twitter.com/vinnikim
p126
sg28
Vtwitter.com/vinnikim
p127
sassg30
(dp128
g20
(lp129
sssg33
I56
sg34
VC0DEED
p130
sg36
V811513428
p131
sg38
VC0DEED
p132
sg40
I0
sg41
(dp133
g43
Ven
p134
sg45
I00
sg16
(dp135
g47
(lp136
sg49
(lp137
sg58
(lp138
(dp139
g24
(lp140
I0
aI22
asg63
VBabaNowThatYouAreBack
p141
sasg20
(lp142
ssg61
Nsg62
I00
sg63
V#BabaNowThatYouAreBack tell us about the men in black
p143
sg65
VSat May 31 09:16:10 +0000 2014
p144
sg67
I00
sg68
Nsg70
Nsg71
Nsg73
V<a href="https://mobile.twitter.com" rel="nofollow">Mobile Web (M2)</a>
p145
sg75
Nsg76
Nsg36
V472667846246285312
p146
sg79
Nsg80
I0
sg81
Nsg5
I472667846246285312
sg82
I0
sg83
Nssg84
I00
sg85
Nsg86
I72
sg30
V
p147
sg88
I359
sg89
VNairobi
p148
sg91
V0084B4
p149
sg93
Vhttp://pbs.twimg.com/profile_images/465361156753076224/O8UjmxTJ_normal.jpeg
p150
sg95
Nsg96
I01
sg99
Vhttp://abs.twimg.com/images/themes/theme1/bg.png
p151
sg54
Vvinnikim
p152
sg43
Ven
p153
sg103
I00
sg104
I21
sg56
VVinnie Kim
p154
sg106
Nsg18
Vhttp://t.co/IWAZE6x10r
p155
sg65
VSat Sep 08 19:08:33 +0000 2012
p156
sg109
I00
sg110
Nsg112
I00
sg113
I01
sg114
I00
sa.