(lp0
(dp1
Vfollow_request_sent
p2
NsVprofile_use_background_image
p3
I01
sVdefault_profile_image
p4
I00
sVid
p5
I32342253
sVprofile_background_image_url_https
p6
Vhttps://pbs.twimg.com/profile_background_images/289628750/Image014.jpg
p7
sVverified
p8
I00
sVprofile_text_color
p9
V333333
p10
sVmuting
p11
NsVprofile_image_url_https
p12
Vhttps://pbs.twimg.com/profile_images/3346247676/3571bc855fadc3449356c9ece9ba5d9f_normal.jpeg
p13
sVprofile_sidebar_fill_color
p14
VDDEEF6
p15
sVentities
p16
(dp17
Vdescription
p18
(dp19
Vurls
p20
(lp21
sssVfollowers_count
p22
I44
sVprofile_sidebar_border_color
p23
VC0DEED
p24
sVid_str
p25
V32342253
p26
sVprofile_background_color
p27
VC0DEED
p28
sVlisted_count
p29
I1
sVstatus
p30
(dp31
Vlang
p32
Ven
p33
sVfavorited
p34
I00
sg16
(dp35
Vsymbols
p36
(lp37
sVuser_mentions
p38
(lp39
(dp40
g5
I1485838501
sVindices
p41
(lp42
I0
aI14
asg25
V1485838501
p43
sVscreen_name
p44
VKenyaPowerLtd
p45
sVname
p46
VKenya Power
p47
sasVhashtags
p48
(lp49
sg20
(lp50
ssVcontributors
p51
NsVtruncated
p52
I00
sVtext
p53
V@KenyaPowerLtd ref 1355734/136440 power intermittent. Technicians went there without ladder never to return again. Today no power from 1100.
p54
sVcreated_at
p55
VThu May 22 17:19:31 +0000 2014
p56
sVretweeted
p57
I00
sVin_reply_to_status_id_str
p58
NsVcoordinates
p59
NsVin_reply_to_user_id_str
p60
V1485838501
p61
sVsource
p62
V<a href="https://twitter.com/download/android" rel="nofollow">Twitter for Android Tablets</a>
p63
sVin_reply_to_status_id
p64
NsVin_reply_to_screen_name
p65
VKenyaPowerLtd
p66
sg25
V469527992080015360
p67
sVplace
p68
NsVretweet_count
p69
I0
sVgeo
p70
Nsg5
I469527992080015360
sVfavorite_count
p71
I0
sVin_reply_to_user_id
p72
I1485838501
ssVis_translation_enabled
p73
I00
sVutc_offset
p74
I10800
sVstatuses_count
p75
I80
sg18
V
p76
sVfriends_count
p77
I467
sVlocation
p78
VNairobi
p79
sVprofile_link_color
p80
V0084B4
p81
sVprofile_image_url
p82
Vhttp://pbs.twimg.com/profile_images/3346247676/3571bc855fadc3449356c9ece9ba5d9f_normal.jpeg
p83
sVfollowing
p84
NsVgeo_enabled
p85
I01
sVprofile_background_image_url
p86
Vhttp://pbs.twimg.com/profile_background_images/289628750/Image014.jpg
p87
sg44
VAhmedAliBakari
p88
sg32
Ven
p89
sVprofile_background_tile
p90
I01
sVfavourites_count
p91
I1
sg46
VAhmed Ali
p92
sVnotifications
p93
NsVurl
p94
Nsg55
VFri Apr 17 07:42:38 +0000 2009
p95
sVcontributors_enabled
p96
I00
sVtime_zone
p97
VAfrica/Nairobi
p98
sVprotected
p99
I00
sVdefault_profile
p100
I00
sVis_translator
p101
I00
sa(dp102
g2
Nsg3
I01
sg4
I00
sg5
I376128379
sg6
Vhttps://pbs.twimg.com/profile_background_images/378800000178307262/X_Acvxo9.jpeg
p103
sg8
I00
sg9
V333333
p104
sg11
Nsg12
Vhttps://pbs.twimg.com/profile_images/428904867935969281/z4Y0AgIU_normal.jpeg
p105
sg14
VDDEEF6
p106
sg16
(dp107
g18
(dp108
g20
(lp109
sssg22
I63
sg23
VFFFFFF
p110
sg25
V376128379
p111
sg27
VC0DEED
p112
sg29
I0
sg30
(dp113
g32
Ven
p114
sg34
I00
sg16
(dp115
g36
(lp116
sg38
(lp117
(dp118
g5
I142247128
sg41
(lp119
I0
aI13
asg25
V142247128
p120
sg44
VAndreflavour
p121
sg46
VDj Andre ADDICTION
p122
sasg48
(lp123
(dp124
g41
(lp125
I34
aI47
asg53
Vmusictherapy
p126
sasg20
(lp127
ssg51
Nsg52
I00
sg53
V@Andreflavour yo! I LOVE you AA!! #musictherapy
p128
sg55
VMon May 26 06:54:07 +0000 2014
p129
sg57
I00
sg58
Nsg59
Nsg60
V142247128
p130
sg62
V<a href="http://twitter.com" rel="nofollow">Twitter Web Client</a>
p131
sg64
Nsg65
VAndreflavour
p132
sg25
V470820156688457728
p133
sg68
Nsg69
I1
sg70
Nsg5
I470820156688457728
sg71
I1
sg72
I142247128
ssg73
I00
sg74
I10800
sg75
I188
sg18
VThere's nothing too hard for me....except coding.
p134
sg77
I139
sg78
Vnakuru/nairobi
p135
sg80
V0084B4
p136
sg82
Vhttp://pbs.twimg.com/profile_images/428904867935969281/z4Y0AgIU_normal.jpeg
p137
sg84
Nsg85
I01
sVprofile_banner_url
p138
Vhttps://pbs.twimg.com/profile_banners/376128379/1401089463
p139
sg86
Vhttp://pbs.twimg.com/profile_background_images/378800000178307262/X_Acvxo9.jpeg
p140
sg44
Vcreme_of_nature
p141
sg32
Ven
p142
sg90
I01
sg91
I0
sg46
VRachael Nyokabi
p143
sg93
Nsg94
Nsg55
VMon Sep 19 10:46:54 +0000 2011
p144
sg96
I00
sg97
VBaghdad
p145
sg99
I00
sg100
I00
sg101
I00
sa(dp146
g2
Nsg3
I01
sg4
I00
sg5
I29966255
sg6
Vhttps://pbs.twimg.com/profile_background_images/378800000168027030/Yj6l-b3L.png
p147
sg8
I00
sg9
V333333
p148
sg11
Nsg12
Vhttps://pbs.twimg.com/profile_images/474992117509787648/XleDNl3x_normal.jpeg
p149
sg14
VEFEFEF
p150
sg16
(dp151
g94
(dp152
g20
(lp153
(dp154
g94
Vhttp://t.co/NfNQGjJWel
p155
sg41
(lp156
I0
aI22
asVexpanded_url
p157
Vhttp://www.ilovesunsplash.com
p158
sVdisplay_url
p159
Vilovesunsplash.com
p160
sassg18
(dp161
g20
(lp162
sssg22
I957
sg23
VFFFFFF
p163
sg25
V29966255
p164
sg27
V131516
p165
sg29
I9
sg30
(dp166
g32
Vtl
p167
sg34
I00
sg16
(dp168
g36
(lp169
sg38
(lp170
(dp171
g5
I26312533
sg41
(lp172
I0
aI12
asg25
V26312533
p173
sg44
VVanessaMdee
p174
sg46
VVeeMoney!ComeOver
p175
sasg48
(lp176
sg20
(lp177
ssg51
Nsg52
I00
sg53
V@VanessaMdee happy birthday baby girl... Kila la heri kwa huu mwaka mpya
p178
sg55
VSat Jun 07 17:07:34 +0000 2014
p179
sg57
I00
sg58
Nsg59
Nsg60
V26312533
p180
sg62
V<a href="http://twitter.com/download/android" rel="nofollow">Twitter for Android</a>
p181
sg64
Nsg65
VVanessaMdee
p182
sg25
V475323192459153408
p183
sg68
Nsg69
I1
sg70
Nsg5
I475323192459153408
sg71
I0
sg72
I26312533
ssg73
I00
sg74
I10800
sg75
I15806
sg18
VTelecom Engineer | Team MUFC | Team Gor Mahia | Sunsplash Media rep (Africa)
p184
sg77
I1050
sg78
VNairobi
p185
sg80
V009999
p186
sg82
Vhttp://pbs.twimg.com/profile_images/474992117509787648/XleDNl3x_normal.jpeg
p187
sg84
Nsg85
I01
sg138
Vhttps://pbs.twimg.com/profile_banners/29966255/1351176716
p188
sg86
Vhttp://pbs.twimg.com/profile_background_images/378800000168027030/Yj6l-b3L.png
p189
sg44
VKennObara
p190
sg32
Ven
p191
sg90
I01
sg91
I744
sg46
VKenn Obara
p192
sg93
Nsg94
Vhttp://t.co/NfNQGjJWel
p193
sg55
VThu Apr 09 11:38:53 +0000 2009
p194
sg96
I00
sg97
VNairobi
p195
sg99
I00
sg100
I00
sg101
I00
sa.