(lp0
(dp1
Vfollow_request_sent
p2
NsVprofile_use_background_image
p3
I01
sVdefault_profile_image
p4
I00
sVid
p5
I1968840985
sVprofile_background_image_url_https
p6
Vhttps://abs.twimg.com/images/themes/theme1/bg.png
p7
sVverified
p8
I00
sVprofile_text_color
p9
V333333
p10
sVmuting
p11
NsVprofile_image_url_https
p12
Vhttps://pbs.twimg.com/profile_images/378800000613551452/9c8c6828ea057e6dd7e85d2d984b094c_normal.jpeg
p13
sVprofile_sidebar_fill_color
p14
VDDEEF6
p15
sVentities
p16
(dp17
Vurl
p18
(dp19
Vurls
p20
(lp21
(dp22
g18
Vhttp://t.co/TnLYrbz3jm
p23
sVindices
p24
(lp25
I0
aI22
asVexpanded_url
p26
Vhttp://www.eastafricamountainclimbingadventures.com/
p27
sVdisplay_url
p28
V\u2026tafricamountainclimbingadventures.com
p29
sassVdescription
p30
(dp31
g20
(lp32
(dp33
g18
Vhttp://t.co/TnLYrbz3jm
p34
sg24
(lp35
I52
aI74
asg26
Vhttp://www.eastafricamountainclimbingadventures.com/
p36
sg28
V\u2026tafricamountainclimbingadventures.com
p37
sasssVfollowers_count
p38
I18
sVprofile_sidebar_border_color
p39
VC0DEED
p40
sVid_str
p41
V1968840985
p42
sVprofile_background_color
p43
VC0DEED
p44
sVlisted_count
p45
I0
sVstatus
p46
(dp47
Vcontributors
p48
NsVtruncated
p49
I00
sVtext
p50
Vhttp://t.co/DBR5NasnEP
p51
sVin_reply_to_status_id
p52
Nsg5
I471921141972340736
sVfavorite_count
p53
I0
sVsource
p54
V<a href="http://www.referralkey.com" rel="nofollow">Referral Key</a>
p55
sVretweeted
p56
I00
sVcoordinates
p57
Nsg16
(dp58
Vsymbols
p59
(lp60
sVuser_mentions
p61
(lp62
sVhashtags
p63
(lp64
sg20
(lp65
(dp66
g18
Vhttp://t.co/DBR5NasnEP
p67
sg24
(lp68
I0
aI22
asg26
Vhttp://eastafricamountainclimbingadventures.com/Travel+Information.html
p69
sg28
V\u2026tafricamountainclimbingadventures.com/Travel+Informa\u2026
p70
sassVin_reply_to_screen_name
p71
Nsg41
V471921141972340736
p72
sVretweet_count
p73
I0
sVin_reply_to_user_id
p74
NsVfavorited
p75
I00
sVgeo
p76
NsVin_reply_to_user_id_str
p77
NsVpossibly_sensitive
p78
I00
sVlang
p79
Vund
p80
sVcreated_at
p81
VThu May 29 07:49:02 +0000 2014
p82
sVin_reply_to_status_id_str
p83
NsVplace
p84
NssVis_translation_enabled
p85
I00
sVutc_offset
p86
I10800
sVstatuses_count
p87
I114
sg30
Veast africa mountain climbings a real adventure see http://t.co/TnLYrbz3jm
p88
sVfriends_count
p89
I23
sVlocation
p90
VNairobi,Kenya
p91
sVprofile_link_color
p92
V0084B4
p93
sVprofile_image_url
p94
Vhttp://pbs.twimg.com/profile_images/378800000613551452/9c8c6828ea057e6dd7e85d2d984b094c_normal.jpeg
p95
sVfollowing
p96
NsVgeo_enabled
p97
I01
sVprofile_background_image_url
p98
Vhttp://abs.twimg.com/images/themes/theme1/bg.png
p99
sVscreen_name
p100
Vmountain_info
p101
sg79
Ven
p102
sVprofile_background_tile
p103
I00
sVfavourites_count
p104
I0
sVname
p105
Veast africa mountain
p106
sVnotifications
p107
Nsg18
Vhttp://t.co/TnLYrbz3jm
p108
sg81
VFri Oct 18 12:46:25 +0000 2013
p109
sVcontributors_enabled
p110
I00
sVtime_zone
p111
VNairobi
p112
sVprotected
p113
I00
sVdefault_profile
p114
I01
sVis_translator
p115
I00
sa(dp116
g2
Nsg3
I01
sg4
I00
sg5
I480205227
sg6
Vhttps://pbs.twimg.com/profile_background_images/449026144906407936/4fifO9ST.jpeg
p117
sg8
I00
sg9
V333333
p118
sg11
Nsg12
Vhttps://pbs.twimg.com/profile_images/446252057406627841/viUeJc-5_normal.jpeg
p119
sg14
VE6F6F9
p120
sg16
(dp121
g18
(dp122
g20
(lp123
(dp124
g18
Vhttp://t.co/TvRiUvI4nO
p125
sg24
(lp126
I0
aI22
asg26
Vhttp://hump.co.ke
p127
sg28
Vhump.co.ke
p128
sassg30
(dp129
g20
(lp130
sssg38
I7430
sg39
VFFFFFF
p131
sg41
V480205227
p132
sg43
VDBE9ED
p133
sg45
I9
sg46
(dp134
g48
Nsg49
I00
sg50
VRT @BieberAnnual: gain tweets soon
p135
sg52
Nsg5
I475257055658266624
sg53
I0
sg54
V<a href="https://mobile.twitter.com" rel="nofollow">Mobile Web (M2)</a>
p136
sg56
I00
sg57
Nsg16
(dp137
g59
(lp138
sg61
(lp139
(dp140
g5
I1086139884
sg24
(lp141
I3
aI16
asg41
V1086139884
p142
sg100
VBieberAnnual
p143
sg105
V\u263eHE FOLLOWED ME
p144
sasg63
(lp145
sg20
(lp146
ssg71
Nsg41
V475257055658266624
p147
sg73
I158
sg74
Nsg75
I00
sVretweeted_status
p148
(dp149
g79
Ven
p150
sg75
I00
sg16
(dp151
g59
(lp152
sg61
(lp153
sg63
(lp154
sg20
(lp155
ssg48
Nsg49
I00
sg50
Vgain tweets soon
p156
sg81
VSat Jun 07 12:40:05 +0000 2014
p157
sg56
I00
sg83
Nsg57
Nsg77
Nsg54
V<a href="http://twitter.com" rel="nofollow">Twitter Web Client</a>
p158
sg52
Nsg71
Nsg41
V475255875486363648
p159
sg84
Nsg73
I158
sg76
Nsg5
I475255875486363648
sg53
I707
sg74
Nssg76
Nsg77
Nsg79
Ven
p160
sg81
VSat Jun 07 12:44:46 +0000 2014
p161
sg83
Nsg84
Nssg85
I00
sg86
I10800
sg87
I10859
sg30
VBorn again, a manchester united fan cellebrating 20th trophy, medical laboratory technician,Bsc student,@spukenya.
p162
sg89
I7018
sg90
VNairobi-kenya.
p163
sg92
VCC3366
p164
sg94
Vhttp://pbs.twimg.com/profile_images/446252057406627841/viUeJc-5_normal.jpeg
p165
sg96
Nsg97
I01
sVprofile_banner_url
p166
Vhttps://pbs.twimg.com/profile_banners/480205227/1395231052
p167
sg98
Vhttp://pbs.twimg.com/profile_background_images/449026144906407936/4fifO9ST.jpeg
p168
sg100
Vdotyoung13
p169
sg79
Ven
p170
sg103
I01
sg104
I6
sg105
Vhumphries dotyoung
p171
sg107
Nsg18
Vhttp://t.co/TvRiUvI4nO
p172
sg81
VWed Feb 01 07:15:27 +0000 2012
p173
sg110
I00
sg111
VBaghdad
p174
sg113
I00
sg114
I00
sg115
I00
sa(dp175
g2
Nsg3
I01
sg4
I00
sg5
I844222796
sg6
Vhttps://abs.twimg.com/images/themes/theme1/bg.png
p176
sg8
I00
sg9
V333333
p177
sg11
Nsg12
Vhttps://pbs.twimg.com/profile_images/456884294221594624/i6YcTjZy_normal.jpeg
p178
sg14
VDDEEF6
p179
sg16
(dp180
g30
(dp181
g20
(lp182
sssg38
I305
sg39
VC0DEED
p183
sg41
V844222796
p184
sg43
VC0DEED
p185
sg45
I1
sg46
(dp186
g48
Nsg49
I00
sg50
VRT @theshamingofjay: Use your selfie machine to call your Mother and tell her you love her today.
p187
sg52
Nsg5
I474939995690897408
sg53
I0
sg54
V<a href="http://twitter.com/download/android" rel="nofollow">Twitter for Android</a>
p188
sg56
I00
sg57
Nsg16
(dp189
g59
(lp190
sg61
(lp191
(dp192
g5
I1139433727
sg24
(lp193
I3
aI19
asg41
V1139433727
p194
sg100
Vtheshamingofjay
p195
sg105
VJay
p196
sasg63
(lp197
sg20
(lp198
ssg71
Nsg41
V474939995690897408
p199
sg73
I383
sg74
Nsg75
I00
sg148
(dp200
g79
Ven
p201
sg75
I00
sg16
(dp202
g59
(lp203
sg61
(lp204
sg63
(lp205
sg20
(lp206
ssg48
Nsg49
I00
sg50
VUse your selfie machine to call your Mother and tell her you love her today.
p207
sg81
VSun May 11 12:20:25 +0000 2014
p208
sg56
I00
sg83
Nsg57
Nsg77
Nsg54
V<a href="http://twitter.com/download/iphone" rel="nofollow">Twitter for iPhone</a>
p209
sg52
Nsg71
Nsg41
V465466455728066560
p210
sg84
Nsg73
I383
sg76
Nsg5
I465466455728066560
sg53
I649
sg74
Nssg76
Nsg77
Nsg79
Ven
p211
sg81
VFri Jun 06 15:44:53 +0000 2014
p212
sg83
Nsg84
Nssg85
I00
sg86
Nsg87
I237
sg30
VProudly Kenyan
p213
sg89
I936
sg90
VNairobi
p214
sg92
V0084B4
p215
sg94
Vhttp://pbs.twimg.com/profile_images/456884294221594624/i6YcTjZy_normal.jpeg
p216
sg96
Nsg97
I01
sg98
Vhttp://abs.twimg.com/images/themes/theme1/bg.png
p217
sg100
Vnyamburandanuko
p218
sg79
Ven
p219
sg103
I00
sg104
I845
sg105
Vnyambura
p220
sg107
Nsg18
Nsg81
VMon Sep 24 20:08:49 +0000 2012
p221
sg110
I00
sg111
Nsg113
I00
sg114
I01
sg115
I00
sa.