(lp0
(dp1
Vfollow_request_sent
p2
NsVprofile_use_background_image
p3
I01
sVdefault_profile_image
p4
I00
sVid
p5
I57099601
sVprofile_background_image_url_https
p6
Vhttps://pbs.twimg.com/profile_background_images/448394213336444928/MfMEPLLz.jpeg
p7
sVverified
p8
I00
sVprofile_text_color
p9
V333333
p10
sVmuting
p11
NsVprofile_image_url_https
p12
Vhttps://pbs.twimg.com/profile_images/450885106795048960/6vRY9R5B_normal.jpeg
p13
sVprofile_sidebar_fill_color
p14
VF6FFD1
p15
sVentities
p16
(dp17
Vdescription
p18
(dp19
Vurls
p20
(lp21
sssVfollowers_count
p22
I221
sVprofile_sidebar_border_color
p23
VFFFFFF
p24
sVid_str
p25
V57099601
p26
sVprofile_background_color
p27
VFFF04D
p28
sVlisted_count
p29
I1
sVstatus
p30
(dp31
Vcontributors
p32
NsVtruncated
p33
I00
sVtext
p34
VWhen the #party don't stop! #cocktails#mocktails#Cheerstothefreakinweekend emmah_nerima 'Do you chew\u2026 http://t.co/VcaRniiD00
p35
sVin_reply_to_status_id
p36
Nsg5
I475335181406990336
sVfavorite_count
p37
I0
sVsource
p38
V<a href="http://instagram.com" rel="nofollow">Instagram</a>
p39
sVretweeted
p40
I00
sVcoordinates
p41
Nsg16
(dp42
Vsymbols
p43
(lp44
sVuser_mentions
p45
(lp46
sVhashtags
p47
(lp48
(dp49
Vindices
p50
(lp51
I9
aI15
asg34
Vparty
p52
sasg20
(lp53
(dp54
Vurl
p55
Vhttp://t.co/VcaRniiD00
p56
sg50
(lp57
I102
aI124
asVexpanded_url
p58
Vhttp://instagram.com/p/o87RzYEnq9/
p59
sVdisplay_url
p60
Vinstagram.com/p/o87RzYEnq9/
p61
sassVin_reply_to_screen_name
p62
Nsg25
V475335181406990336
p63
sVretweet_count
p64
I0
sVin_reply_to_user_id
p65
NsVfavorited
p66
I00
sVgeo
p67
NsVin_reply_to_user_id_str
p68
NsVpossibly_sensitive
p69
I00
sVlang
p70
Ven
p71
sVcreated_at
p72
VSat Jun 07 17:55:13 +0000 2014
p73
sVin_reply_to_status_id_str
p74
NsVplace
p75
NssVis_translation_enabled
p76
I00
sVutc_offset
p77
I14400
sVstatuses_count
p78
I4320
sg18
VDreamer|Believer|Beautiful Soul|MissFabulous|Leo
p79
sVfriends_count
p80
I283
sVlocation
p81
VKampala+Nairobi+Africa+M.E
p82
sVprofile_link_color
p83
V0099CC
p84
sVprofile_image_url
p85
Vhttp://pbs.twimg.com/profile_images/450885106795048960/6vRY9R5B_normal.jpeg
p86
sVfollowing
p87
NsVgeo_enabled
p88
I01
sVprofile_banner_url
p89
Vhttps://pbs.twimg.com/profile_banners/57099601/1396879318
p90
sVprofile_background_image_url
p91
Vhttp://pbs.twimg.com/profile_background_images/448394213336444928/MfMEPLLz.jpeg
p92
sVscreen_name
p93
VZOEsoFabulous
p94
sg70
Ven
p95
sVprofile_background_tile
p96
I00
sVfavourites_count
p97
I127
sVname
p98
VZowenah Badawi
p99
sVnotifications
p100
Nsg55
Nsg72
VWed Jul 15 18:46:20 +0000 2009
p101
sVcontributors_enabled
p102
I00
sVtime_zone
p103
VMuscat
p104
sVprotected
p105
I00
sVdefault_profile
p106
I00
sVis_translator
p107
I00
sa(dp108
g2
Nsg3
I01
sg4
I00
sg5
I81144045
sg6
Vhttps://pbs.twimg.com/profile_background_images/122720300/24937_349647981043_38857191043_4169052_5333024_s.jpg
p109
sg8
I00
sg9
V333333
p110
sg11
Nsg12
Vhttps://pbs.twimg.com/profile_images/3439671411/453db23234d196c6ed6fdd05ebe1e97b_normal.jpeg
p111
sg14
VDDEEF6
p112
sg16
(dp113
g18
(dp114
g20
(lp115
sssg22
I88
sg23
VC0DEED
p116
sg25
V81144045
p117
sg27
VC0DEED
p118
sg29
I1
sg30
(dp119
g32
Nsg33
I00
sg34
VNews Archives http://t.co/Mz7cPuCXJf via @sharethis
p120
sg36
Nsg5
I471270962092994560
sg37
I0
sg38
V<a href="https://dev.twitter.com/docs/tfw" rel="nofollow">Twitter for Websites</a>
p121
sg40
I00
sg41
Nsg16
(dp122
g43
(lp123
sg45
(lp124
(dp125
g5
I14116807
sg50
(lp126
I41
aI51
asg25
V14116807
p127
sg93
VShareThis
p128
sg98
VShareThis
p129
sasg47
(lp130
sg20
(lp131
(dp132
g55
Vhttp://t.co/Mz7cPuCXJf
p133
sg50
(lp134
I14
aI36
asg58
Vhttp://shar.es/VlYMa
p135
sg60
Vshar.es/VlYMa
p136
sassg62
Nsg25
V471270962092994560
p137
sg64
I0
sg65
Nsg66
I00
sg67
Nsg68
Nsg69
I00
sg70
Vet
p138
sg72
VTue May 27 12:45:27 +0000 2014
p139
sg74
Nsg75
Nssg76
I00
sg77
I10800
sg78
I213
sg18
VEasy...
p140
sg80
I235
sg81
VNairobi,Kenya
p141
sg83
V0084B4
p142
sg85
Vhttp://pbs.twimg.com/profile_images/3439671411/453db23234d196c6ed6fdd05ebe1e97b_normal.jpeg
p143
sg87
Nsg88
I01
sg89
Vhttps://pbs.twimg.com/profile_banners/81144045/1368487615
p144
sg91
Vhttp://pbs.twimg.com/profile_background_images/122720300/24937_349647981043_38857191043_4169052_5333024_s.jpg
p145
sg93
Vayogbaju
p146
sg70
Ven
p147
sg96
I01
sg97
I0
sg98
VAdegbaju Oluwasegun 
p148
sg100
Nsg55
Nsg72
VFri Oct 09 16:19:24 +0000 2009
p149
sg102
I00
sg103
VNairobi
p150
sg105
I00
sg106
I00
sg107
I00
sa(dp151
g2
Nsg3
I01
sg4
I00
sg5
I364191440
sg6
Vhttps://pbs.twimg.com/profile_background_images/872359710/7af8ecceb6b289f246c2dfff59b24534.jpeg
p152
sg8
I00
sg9
V333333
p153
sg11
Nsg12
Vhttps://pbs.twimg.com/profile_images/461198956639551489/XxwsXrRK_normal.jpeg
p154
sg14
VDDEEF6
p155
sg16
(dp156
g18
(dp157
g20
(lp158
sssg22
I855
sg23
VFFFFFF
p159
sg25
V364191440
p160
sg27
VC0DEED
p161
sg29
I1
sg30
(dp162
g70
Ven
p163
sg66
I00
sg16
(dp164
g43
(lp165
sg45
(lp166
sg47
(lp167
sg20
(lp168
ssg32
Nsg33
I00
sg34
VWhat is a side chiq?
p169
sg72
VSat Jun 07 15:13:32 +0000 2014
p170
sg40
I00
sg74
Nsg41
Nsg68
Nsg38
V<a href="https://mobile.twitter.com" rel="nofollow">Mobile Web (M2)</a>
p171
sg36
Nsg62
Nsg25
V475294493093011456
p172
sg75
Nsg64
I0
sg67
Nsg5
I475294493093011456
sg37
I0
sg65
Nssg76
I00
sg77
I10800
sg78
I16374
sg18
V\u264b #Arsenal #Vodka \u264b IG: Chris_Christian 254
p173
sg80
I748
sg81
VNairobi
p174
sg83
V0084B4
p175
sg85
Vhttp://pbs.twimg.com/profile_images/461198956639551489/XxwsXrRK_normal.jpeg
p176
sg87
Nsg88
I01
sg89
Vhttps://pbs.twimg.com/profile_banners/364191440/1363608692
p177
sg91
Vhttp://pbs.twimg.com/profile_background_images/872359710/7af8ecceb6b289f246c2dfff59b24534.jpeg
p178
sg93
VChris_Mwangi_
p179
sg70
Ven
p180
sg96
I01
sg97
I172
sg98
VChris!s
p181
sg100
Nsg55
Nsg72
VMon Aug 29 10:53:10 +0000 2011
p182
sg102
I00
sg103
VNairobi
p183
sg105
I00
sg106
I00
sg107
I00
sa.