(lp0
(dp1
Vfollow_request_sent
p2
NsVprofile_use_background_image
p3
I01
sVdefault_profile_image
p4
I00
sVid
p5
I243598362
sVprofile_background_image_url_https
p6
Vhttps://abs.twimg.com/images/themes/theme12/bg.gif
p7
sVverified
p8
I00
sVprofile_text_color
p9
V0C3E53
p10
sVmuting
p11
NsVprofile_image_url_https
p12
Vhttps://pbs.twimg.com/profile_images/414715155172179968/NdGENz2P_normal.jpeg
p13
sVprofile_sidebar_fill_color
p14
VFFF7CC
p15
sVentities
p16
(dp17
Vdescription
p18
(dp19
Vurls
p20
(lp21
sssVfollowers_count
p22
I188
sVprofile_sidebar_border_color
p23
V000000
p24
sVid_str
p25
V243598362
p26
sVprofile_background_color
p27
VBADFCD
p28
sVlisted_count
p29
I1
sVstatus
p30
(dp31
Vcontributors
p32
NsVtruncated
p33
I00
sVtext
p34
VRT @CuteLoveMsgs: Sometimes, all a girl wants is for you to fight for her. Make her believe that you may want this relationship more than s\u2026
p35
sVin_reply_to_status_id
p36
Nsg5
I473405713868283905
sVfavorite_count
p37
I0
sVsource
p38
V<a href="http://twitter.com/download/android" rel="nofollow">Twitter for Android</a>
p39
sVretweeted
p40
I00
sVcoordinates
p41
Nsg16
(dp42
Vsymbols
p43
(lp44
sVuser_mentions
p45
(lp46
(dp47
g5
I272055657
sVindices
p48
(lp49
I3
aI16
asg25
V272055657
p50
sVscreen_name
p51
VCuteLoveMsgs
p52
sVname
p53
VCuteLoveMsgs
p54
sasVhashtags
p55
(lp56
sg20
(lp57
ssVin_reply_to_screen_name
p58
Nsg25
V473405713868283905
p59
sVretweet_count
p60
I1037
sVin_reply_to_user_id
p61
NsVfavorited
p62
I00
sVretweeted_status
p63
(dp64
Vlang
p65
Ven
p66
sg62
I00
sg16
(dp67
g43
(lp68
sg45
(lp69
sg55
(lp70
sg20
(lp71
ssg32
Nsg33
I00
sg34
VSometimes, all a girl wants is for you to fight for her. Make her believe that you may want this relationship more than she does.
p72
sVcreated_at
p73
VMon Jun 02 10:00:01 +0000 2014
p74
sg40
I00
sVin_reply_to_status_id_str
p75
Nsg41
NsVin_reply_to_user_id_str
p76
Nsg38
V<a href="http://bufferapp.com" rel="nofollow">Buffer</a>
p77
sg36
Nsg58
Nsg25
V473403656361222144
p78
sVplace
p79
Nsg60
I1037
sVgeo
p80
Nsg5
I473403656361222144
sg37
I841
sg61
Nssg80
Nsg76
Nsg65
Ven
p81
sg73
VMon Jun 02 10:08:12 +0000 2014
p82
sg75
Nsg79
NssVis_translation_enabled
p83
I00
sVutc_offset
p84
I10800
sVstatuses_count
p85
I1187
sg18
VVery ambitious | cool no issues| Lover of Rock Jazz Rhumba soul @ anytime \u000a (Mkulima Farmer) I'm a Man of People
p86
sVfriends_count
p87
I697
sVlocation
p88
VNairobi
p89
sVprofile_link_color
p90
VFF0000
p91
sVprofile_image_url
p92
Vhttp://pbs.twimg.com/profile_images/414715155172179968/NdGENz2P_normal.jpeg
p93
sVfollowing
p94
NsVgeo_enabled
p95
I01
sVprofile_banner_url
p96
Vhttps://pbs.twimg.com/profile_banners/243598362/1363583116
p97
sVprofile_background_image_url
p98
Vhttp://abs.twimg.com/images/themes/theme12/bg.gif
p99
sg51
Vjobmwita
p100
sg65
Ven
p101
sVprofile_background_tile
p102
I01
sVfavourites_count
p103
I224
sg53
VJob Mwita
p104
sVnotifications
p105
NsVurl
p106
Nsg73
VThu Jan 27 11:56:45 +0000 2011
p107
sVcontributors_enabled
p108
I00
sVtime_zone
p109
VNairobi
p110
sVprotected
p111
I00
sVdefault_profile
p112
I00
sVis_translator
p113
I00
sa(dp114
g2
Nsg3
I01
sg4
I00
sg5
I334479041
sg6
Vhttps://pbs.twimg.com/profile_background_images/464652454458449920/I4TNseJz.jpeg
p115
sg8
I00
sg9
V333333
p116
sg11
Nsg12
Vhttps://pbs.twimg.com/profile_images/378800000509774758/c17fed9c67db2ef623d53ec81227aea5_normal.jpeg
p117
sg14
VC0DFEC
p118
sg16
(dp119
g18
(dp120
g20
(lp121
sssg22
I341
sg23
VFFFFFF
p122
sg25
V334479041
p123
sg27
V022330
p124
sg29
I3
sg30
(dp125
g65
Ven
p126
sg62
I00
sg16
(dp127
g43
(lp128
sg45
(lp129
(dp130
g5
I38797799
sg48
(lp131
I16
aI27
asg25
V38797799
p132
sg51
VTiwaSavage
p133
sg53
VTiwa Savage
p134
sasg55
(lp135
sg20
(lp136
ssg32
Nsg33
I00
sg34
VCongratulations @TiwaSavage \U0001f44f\U0001f44f\U0001f44f\U0001f44f
p137
sg73
VSat Jun 07 19:32:51 +0000 2014
p138
sg40
I00
sg75
Nsg41
Nsg76
Nsg38
V<a href="http://twitter.com/download/android" rel="nofollow">Twitter for Android</a>
p139
sg36
Nsg58
Nsg25
V475359753573371904
p140
sg79
Nsg60
I0
sg80
Nsg5
I475359753573371904
sg37
I0
sg61
Nssg83
I00
sg84
I10800
sg85
I3589
sg18
VMarket,Social and Media Researcher.I am enthusiastic about the YOUTHS and brands Targeting the Youth Market.
p141
sg87
I1332
sg88
VNairobi, Kenya
p142
sg90
V0084B4
p143
sg92
Vhttp://pbs.twimg.com/profile_images/378800000509774758/c17fed9c67db2ef623d53ec81227aea5_normal.jpeg
p144
sg94
Nsg95
I01
sg96
Vhttps://pbs.twimg.com/profile_banners/334479041/1399617550
p145
sg98
Vhttp://pbs.twimg.com/profile_background_images/464652454458449920/I4TNseJz.jpeg
p146
sg51
VBarakaChacha
p147
sg65
Ven
p148
sg102
I01
sg103
I20
sg53
VChacheezy
p149
sg105
Nsg106
Nsg73
VWed Jul 13 04:51:16 +0000 2011
p150
sg108
I00
sg109
VNairobi
p151
sg111
I00
sg112
I00
sg113
I00
sa.