(lp0
(dp1
Vfollow_request_sent
p2
NsVprofile_use_background_image
p3
I01
sVdefault_profile_image
p4
I00
sVid
p5
I242224554
sVprofile_background_image_url_https
p6
Vhttps://pbs.twimg.com/profile_background_images/378800000099828464/a51c161c855b796f088d8f9aab2daeed.jpeg
p7
sVverified
p8
I00
sVprofile_text_color
p9
V3C3940
p10
sVmuting
p11
NsVprofile_image_url_https
p12
Vhttps://pbs.twimg.com/profile_images/3680471295/b6b80f443d293a1d68d2c4b4330da6ac_normal.jpeg
p13
sVprofile_sidebar_fill_color
p14
V95E8EC
p15
sVentities
p16
(dp17
Vurl
p18
(dp19
Vurls
p20
(lp21
(dp22
g18
Vhttp://t.co/1tNQs1oh35
p23
sVindices
p24
(lp25
I0
aI22
asVexpanded_url
p26
Vhttp://www.smartkenyan.com
p27
sVdisplay_url
p28
Vsmartkenyan.com
p29
sassVdescription
p30
(dp31
g20
(lp32
sssVfollowers_count
p33
I1012
sVprofile_sidebar_border_color
p34
V000000
p35
sVid_str
p36
V242224554
p37
sVprofile_background_color
p38
V0099B9
p39
sVlisted_count
p40
I6
sVstatus
p41
(dp42
Vlang
p43
Ven
p44
sVfavorited
p45
I00
sg16
(dp46
Vsymbols
p47
(lp48
sVuser_mentions
p49
(lp50
sVhashtags
p51
(lp52
sg20
(lp53
ssVcontributors
p54
NsVtruncated
p55
I00
sVtext
p56
VTwitter Used to be fun B4 you joined
p57
sVcreated_at
p58
VSat Jun 07 05:51:39 +0000 2014
p59
sVretweeted
p60
I00
sVin_reply_to_status_id_str
p61
NsVcoordinates
p62
(dp63
Vtype
p64
VPoint
p65
sg62
(lp66
F36.8270118
aF-1.2890074
assVin_reply_to_user_id_str
p67
NsVsource
p68
V<a href="https://twitter.com/download/android" rel="nofollow">Twitter for  Android</a>
p69
sVin_reply_to_status_id
p70
NsVin_reply_to_screen_name
p71
Nsg36
V475153090392629248
p72
sVplace
p73
(dp74
Vfull_name
p75
VKenya
p76
sg18
Vhttps://api.twitter.com/1.1/geo/id/17ad6a68301cd28b.json
p77
sVcountry
p78
VKenya
p79
sVplace_type
p80
Vcountry
p81
sVbounding_box
p82
(dp83
g64
VPolygon
p84
sg62
(lp85
(lp86
(lp87
F33.8904683840002
aF-4.67750416499992
aa(lp88
F41.8850191650002
aF-4.67750416499992
aa(lp89
F41.8850191650002
aF5.03037582260771
aa(lp90
F33.8904683840002
aF5.03037582260771
aaassVcontained_within
p91
(lp92
sVcountry_code
p93
VKE
p94
sVattributes
p95
(dp96
sg5
V17ad6a68301cd28b
p97
sVname
p98
VKenya
p99
ssVretweet_count
p100
I0
sVgeo
p101
(dp102
g64
VPoint
p103
sg62
(lp104
F-1.2890074
aF36.8270118
assg5
I475153090392629248
sVfavorite_count
p105
I0
sVin_reply_to_user_id
p106
NssVis_translation_enabled
p107
I00
sVutc_offset
p108
I10800
sVstatuses_count
p109
I1589
sg30
VPoet | Writer | Blogger | Social Scientist | Street Educator  | Social Worker | Kenyan | Self Taught Programmer...
p110
sVfriends_count
p111
I1516
sVlocation
p112
VNairobi Kenya
p113
sVprofile_link_color
p114
V003AB8
p115
sVprofile_image_url
p116
Vhttp://pbs.twimg.com/profile_images/3680471295/b6b80f443d293a1d68d2c4b4330da6ac_normal.jpeg
p117
sVfollowing
p118
NsVgeo_enabled
p119
I01
sVprofile_banner_url
p120
Vhttps://pbs.twimg.com/profile_banners/242224554/1398236880
p121
sVprofile_background_image_url
p122
Vhttp://pbs.twimg.com/profile_background_images/378800000099828464/a51c161c855b796f088d8f9aab2daeed.jpeg
p123
sVscreen_name
p124
Vemcie4
p125
sg43
Ven
p126
sVprofile_background_tile
p127
I01
sVfavourites_count
p128
I53
sg98
VChekumbe Thelastpoet
p129
sVnotifications
p130
Nsg18
Vhttp://t.co/1tNQs1oh35
p131
sg58
VMon Jan 24 07:38:28 +0000 2011
p132
sVcontributors_enabled
p133
I00
sVtime_zone
p134
VNairobi
p135
sVprotected
p136
I00
sVdefault_profile
p137
I00
sVis_translator
p138
I00
sa(dp139
g2
Nsg3
I01
sg4
I00
sg5
I99714930
sg6
Vhttps://pbs.twimg.com/profile_background_images/378800000104744967/b9fa21a795b10bca1fd4c20090edf275.jpeg
p140
sg8
I00
sg9
V666666
p141
sg11
Nsg12
Vhttps://pbs.twimg.com/profile_images/472414244311683072/A6a9C0zX_normal.jpeg
p142
sg14
V252429
p143
sg16
(dp144
g18
(dp145
g20
(lp146
(dp147
g18
Vhttp://t.co/b3koTTxzPv
p148
sg24
(lp149
I0
aI22
asg26
Vhttp://justnabz.blogspot.com
p150
sg28
Vjustnabz.blogspot.com
p151
sassg30
(dp152
g20
(lp153
sssg33
I644
sg34
VFFFFFF
p154
sg36
V99714930
p155
sg38
VE3B322
p156
sg40
I7
sg41
(dp157
g43
Ven
p158
sg45
I00
sg16
(dp159
g47
(lp160
sg49
(lp161
sg51
(lp162
sg20
(lp163
ssg54
Nsg55
I00
sg56
VThese opening sequences for The Simpsons always win
p164
sg58
VSat Jun 07 21:12:19 +0000 2014
p165
sg60
I00
sg61
Nsg62
Nsg67
Nsg68
V<a href="http://twitter.com/download/android" rel="nofollow">Twitter for Android</a>
p166
sg70
Nsg71
Nsg36
V475384784097910784
p167
sg73
Nsg100
I0
sg101
Nsg5
I475384784097910784
sg105
I0
sg106
Nssg107
I00
sg108
I10800
sg109
I30620
sg30
VThe Architect You Lost To Cocaine.
p168
sg111
I521
sg112
VEmpty lot. Sometimes, Nairobi.
p169
sg114
V7F9094
p170
sg116
Vhttp://pbs.twimg.com/profile_images/472414244311683072/A6a9C0zX_normal.jpeg
p171
sg118
Nsg119
I01
sg120
Vhttps://pbs.twimg.com/profile_banners/99714930/1349094278
p172
sg122
Vhttp://pbs.twimg.com/profile_background_images/378800000104744967/b9fa21a795b10bca1fd4c20090edf275.jpeg
p173
sg124
V_JustNabz
p174
sg43
Ven
p175
sg127
I00
sg128
I820
sg98
VUndergrad Arch.
p176
sg130
Nsg18
Vhttp://t.co/b3koTTxzPv
p177
sg58
VSun Dec 27 14:13:29 +0000 2009
p178
sg133
I00
sg134
VNairobi
p179
sg136
I00
sg137
I00
sg138
I00
sa(dp180
g2
Nsg3
I01
sg4
I00
sg5
I260264318
sg6
Vhttps://pbs.twimg.com/profile_background_images/456732039/licht-2-fd.jpg
p181
sg8
I00
sg9
VC5E8E7
p182
sg11
Nsg12
Vhttps://pbs.twimg.com/profile_images/1428302326/n795930713_7058903_5131357_normal.jpg
p183
sg14
V940505
p184
sg16
(dp185
g18
(dp186
g20
(lp187
(dp188
g18
Vhttp://t.co/ekpPLm6o0G
p189
sg24
(lp190
I0
aI22
asg26
Vhttp://soluttaphotography.wordpress.com
p191
sg28
Vsoluttaphotography.wordpress.com
p192
sassg30
(dp193
g20
(lp194
sssg33
I461
sg34
V1C0787
p195
sg36
V260264318
p196
sg38
V854742
p197
sg40
I5
sg41
(dp198
g43
Ven
p199
sg45
I00
sg16
(dp200
g47
(lp201
sg49
(lp202
(dp203
g5
I270929683
sg24
(lp204
I0
aI15
asg36
V270929683
p205
sg124
VBarclays_Kenya
p206
sg98
VBarclays Bank Kenya
p207
sasg51
(lp208
sg20
(lp209
ssg54
Nsg55
I00
sg56
V@Barclays_Kenya Hi. I want to direct a transaction to my A/c but I seem to have misplaced my No. and card. how do i retrieve the A/c number?
p210
sg58
VMon Mar 03 06:03:50 +0000 2014
p211
sg60
I00
sg61
Nsg62
Nsg67
V270929683
p212
sg68
V<a href="http://twitter.com" rel="nofollow">Twitter Web Client</a>
p213
sg70
Nsg71
VBarclays_Kenya
p214
sg36
V440366920605249536
p215
sg73
Nsg100
I0
sg101
Nsg5
I440366920605249536
sg105
I0
sg106
I270929683
ssg107
I00
sg108
I10800
sg109
I3839
sg30
VArchitect,Artist,Sportsman, Almost-everything-pundit,Photographer, Christian,Kenyan...
p216
sg111
I299
sg112
VNairobi
p217
sg114
VCEDB6B
p218
sg116
Vhttp://pbs.twimg.com/profile_images/1428302326/n795930713_7058903_5131357_normal.jpg
p219
sg118
Nsg119
I01
sg120
Vhttps://pbs.twimg.com/profile_banners/260264318/1369642001
p220
sg122
Vhttp://pbs.twimg.com/profile_background_images/456732039/licht-2-fd.jpg
p221
sg124
VSirStephenLutta
p222
sg43
Ven
p223
sg127
I01
sg128
I86
sg98
VStephen Lutta
p224
sg130
Nsg18
Vhttp://t.co/ekpPLm6o0G
p225
sg58
VThu Mar 03 14:50:02 +0000 2011
p226
sg133
I00
sg134
VNairobi
p227
sg136
I00
sg137
I00
sg138
I00
sa(dp228
g2
Nsg3
I00
sg4
I00
sg5
I292411067
sg6
Vhttps://pbs.twimg.com/profile_background_images/854457662/ed2426af3c225869a92d4d8ae8ea5963.jpeg
p229
sg8
I00
sg9
V666666
p230
sg11
Nsg12
Vhttps://pbs.twimg.com/profile_images/378800000730205363/fcafee77ec8ebc00e6bac31d066d83be_normal.jpeg
p231
sg14
V252429
p232
sg16
(dp233
g18
(dp234
g20
(lp235
(dp236
g18
Vhttp://t.co/jV4XwuUMqC
p237
sg24
(lp238
I0
aI22
asg26
Vhttp://instagram.com/to_otsie
p239
sg28
Vinstagram.com/to_otsie
p240
sassg30
(dp241
g20
(lp242
sssg33
I207
sg34
VFFFFFF
p243
sg36
V292411067
p244
sg38
V352726
p245
sg40
I2
sg41
(dp246
g43
Ven
p247
sg45
I00
sg16
(dp248
g47
(lp249
sg49
(lp250
(dp251
g5
I147561402
sg24
(lp252
I0
aI11
asg36
V147561402
p253
sg124
VKenyaPower
p254
sg98
VKenya Power Care
p255
sasg51
(lp256
sg20
(lp257
ssg54
Nsg55
I00
sg56
V@KenyaPower no power in kitenhela since yesterday ac/no 2794226-01 please sort it out.
p258
sg58
VFri Jun 06 03:43:01 +0000 2014
p259
sg60
I00
sg61
Nsg62
Nsg67
V147561402
p260
sg68
V<a href="http://www.twitter.com" rel="nofollow">Twitter for Windows Phone</a>
p261
sg70
Nsg71
VKenyaPower
p262
sg36
V474758330507067393
p263
sg73
Nsg100
I0
sg101
Nsg5
I474758330507067393
sg105
I0
sg106
I147561402
ssg107
I00
sg108
I10800
sg109
I3529
sg30
VArchitect[G], Digital artist,Discovering Photography
p264
sg111
I343
sg112
Vnairobi
p265
sg114
VD02B55
p266
sg116
Vhttp://pbs.twimg.com/profile_images/378800000730205363/fcafee77ec8ebc00e6bac31d066d83be_normal.jpeg
p267
sg118
Nsg119
I01
sg120
Vhttps://pbs.twimg.com/profile_banners/292411067/1370621508
p268
sg122
Vhttp://pbs.twimg.com/profile_background_images/854457662/ed2426af3c225869a92d4d8ae8ea5963.jpeg
p269
sg124
VtO_Osie
p270
sg43
Ven
p271
sg127
I01
sg128
I23
sg98
VMartin leitich
p272
sg130
Nsg18
Vhttp://t.co/jV4XwuUMqC
p273
sg58
VTue May 03 16:14:46 +0000 2011
p274
sg133
I00
sg134
VNairobi
p275
sg136
I00
sg137
I00
sg138
I00
sa.