(lp0
(dp1
Vfollow_request_sent
p2
NsVprofile_use_background_image
p3
I01
sVdefault_profile_image
p4
I00
sVid
p5
I2166252464
sVprofile_background_image_url_https
p6
Vhttps://pbs.twimg.com/profile_background_images/378800000169087500/FJV1YgwI.jpeg
p7
sVverified
p8
I00
sVprofile_text_color
p9
V333333
p10
sVmuting
p11
NsVprofile_image_url_https
p12
Vhttps://pbs.twimg.com/profile_images/474105757286154240/6DWNSF_D_normal.png
p13
sVprofile_sidebar_fill_color
p14
VDDEEF6
p15
sVentities
p16
(dp17
Vurl
p18
(dp19
Vurls
p20
(lp21
(dp22
g18
Vhttp://t.co/eqfOA6ZAGQ
p23
sVindices
p24
(lp25
I0
aI22
asVexpanded_url
p26
Vhttp://trends.co.ke
p27
sVdisplay_url
p28
Vtrends.co.ke
p29
sassVdescription
p30
(dp31
g20
(lp32
sssVfollowers_count
p33
I7217
sVprofile_sidebar_border_color
p34
V000000
p35
sVid_str
p36
V2166252464
p37
sVprofile_background_color
p38
V135785
p39
sVlisted_count
p40
I4
sVstatus
p41
(dp42
Vlang
p43
Ven
p44
sVfavorited
p45
I00
sg16
(dp46
Vsymbols
p47
(lp48
sVuser_mentions
p49
(lp50
sVhashtags
p51
(lp52
sg20
(lp53
ssVcontributors
p54
NsVtruncated
p55
I00
sVtext
p56
VDispatch manager job in Kenya
p57
sVcreated_at
p58
VThu Jun 05 14:25:11 +0000 2014
p59
sVretweeted
p60
I00
sVin_reply_to_status_id_str
p61
NsVcoordinates
p62
NsVin_reply_to_user_id_str
p63
NsVsource
p64
V<a href="http://www.hootsuite.com" rel="nofollow">Hootsuite</a>
p65
sVin_reply_to_status_id
p66
NsVin_reply_to_screen_name
p67
Nsg36
V474557549933764608
p68
sVplace
p69
NsVretweet_count
p70
I0
sVgeo
p71
Nsg5
I474557549933764608
sVfavorite_count
p72
I0
sVin_reply_to_user_id
p73
NssVis_translation_enabled
p74
I00
sVutc_offset
p75
I10800
sVstatuses_count
p76
I393
sg30
V\u2588\u2551\u258cNews \u2588\u2551Gossip \u2588\u2551 Sports \u2588\u2551254 Jobs\u258c
p77
sVfriends_count
p78
I7386
sVlocation
p79
VNairobi_Kenya
p80
sVprofile_link_color
p81
V0084B4
p82
sVprofile_image_url
p83
Vhttp://pbs.twimg.com/profile_images/474105757286154240/6DWNSF_D_normal.png
p84
sVfollowing
p85
NsVgeo_enabled
p86
I01
sVprofile_background_image_url
p87
Vhttp://pbs.twimg.com/profile_background_images/378800000169087500/FJV1YgwI.jpeg
p88
sVscreen_name
p89
VTrends_Ke
p90
sg43
Ven
p91
sVprofile_background_tile
p92
I01
sVfavourites_count
p93
I121
sVname
p94
VTrends.co.ke
p95
sVnotifications
p96
Nsg18
Vhttp://t.co/eqfOA6ZAGQ
p97
sg58
VThu Oct 31 08:28:55 +0000 2013
p98
sVcontributors_enabled
p99
I00
sVtime_zone
p100
VNairobi
p101
sVprotected
p102
I00
sVdefault_profile
p103
I00
sVis_translator
p104
I00
sa(dp105
g2
Nsg3
I01
sg4
I00
sg5
I534079722
sg6
Vhttps://pbs.twimg.com/profile_background_images/702078038/cc509f90ccbe34ae615d280db4e7e734.jpeg
p106
sg8
I00
sg9
V333333
p107
sg11
Nsg12
Vhttps://pbs.twimg.com/profile_images/3585528368/94bd415535e06951a56f29dc486109a3_normal.jpeg
p108
sg14
VDDEEF6
p109
sg16
(dp110
g30
(dp111
g20
(lp112
sssg33
I2550
sg34
V000000
p113
sg36
V534079722
p114
sg38
V642D8B
p115
sg40
I0
sg41
(dp116
g54
Nsg55
I00
sg56
VToday stats: 2 followers, 2 unfollowers via http://t.co/dbRKo6Drbb
p117
sg66
Nsg5
I475145876717842433
sg72
I0
sg64
V<a href="http://unfollowers.com" rel="nofollow">Unfollowers.me</a>
p118
sg60
I00
sg62
Nsg16
(dp119
g47
(lp120
sg49
(lp121
sg51
(lp122
sg20
(lp123
(dp124
g18
Vhttp://t.co/dbRKo6Drbb
p125
sg24
(lp126
I44
aI66
asg26
Vhttp://Unfollowers.com/?s=dt
p127
sg28
VUnfollowers.com/?s=dt
p128
sassg67
Nsg36
V475145876717842433
p129
sg70
I0
sg73
Nsg45
I00
sg71
Nsg63
NsVpossibly_sensitive
p130
I00
sg43
Ven
p131
sg58
VSat Jun 07 05:22:59 +0000 2014
p132
sg61
Nsg69
Nssg74
I00
sg75
I10800
sg76
I2214
sg30
VU WANNA BATTLE ME?HALLA AT ME WHEN U GET A MANAGER :-)
p133
sg78
I2463
sg79
VNairobi
p134
sg81
V0084B4
p135
sg83
Vhttp://pbs.twimg.com/profile_images/3585528368/94bd415535e06951a56f29dc486109a3_normal.jpeg
p136
sg85
Nsg86
I01
sVprofile_banner_url
p137
Vhttps://pbs.twimg.com/profile_banners/534079722/1358403504
p138
sg87
Vhttp://pbs.twimg.com/profile_background_images/702078038/cc509f90ccbe34ae615d280db4e7e734.jpeg
p139
sg89
Vdenniscurtis3
p140
sg43
Ven
p141
sg92
I01
sg93
I6
sg94
Vdennis curtis
p142
sg96
Nsg18
Nsg58
VFri Mar 23 07:27:45 +0000 2012
p143
sg99
I00
sg100
VBaghdad
p144
sg102
I00
sg103
I00
sg104
I00
sa(dp145
g2
Nsg3
I01
sg4
I00
sg5
I1420164661
sg6
Vhttps://pbs.twimg.com/profile_background_images/865612786/0355ccf1a2193e882fa1b70e51bcc77c.jpeg
p146
sg8
I00
sg9
V333333
p147
sg11
Nsg12
Vhttps://pbs.twimg.com/profile_images/464795621489393664/Tan5HC-p_normal.jpeg
p148
sg14
VDDEEF6
p149
sg16
(dp150
g30
(dp151
g20
(lp152
sssg33
I81
sg34
VFFFFFF
p153
sg36
V1420164661
p154
sg38
VC0DEED
p155
sg40
I2
sg41
(dp156
g54
Nsg55
I00
sg56
VRT @SautiSol: We can be voted for @MwalimChurchill at MTV Africa music awards Best Group any hour via http://t.co/TM2B9ZXFme http://t.co/gg\u2026
p157
sg66
Nsg5
I470495370435657728
sg72
I0
sg64
V<a href="https://mobile.twitter.com" rel="nofollow">Mobile Web (M2)</a>
p158
sg60
I00
sg62
Nsg16
(dp159
g47
(lp160
sg49
(lp161
(dp162
g5
I86164797
sg24
(lp163
I3
aI12
asg36
V86164797
p164
sg89
VSautiSol
p165
sg94
VSAUTI SOL
p166
sa(dp167
g5
I339093695
sg24
(lp168
I34
aI50
asg36
V339093695
p169
sg89
VMwalimChurchill
p170
sg94
VChurchill Kenya @ 50
p171
sasg51
(lp172
sg20
(lp173
(dp174
g18
Vhttp://t.co/TM2B9ZXFme
p175
sg24
(lp176
I102
aI124
asg26
Vhttp://www.mtvbase.com
p177
sg28
Vmtvbase.com
p178
sasVmedia
p179
(lp180
(dp181
Vsource_status_id_str
p182
V469517420844290048
p183
sg26
Vhttp://twitter.com/SautiSol/status/469517420844290048/photo/1
p184
sg28
Vpic.twitter.com/gg5iuEYD1E
p185
sg18
Vhttp://t.co/gg5iuEYD1E
p186
sVmedia_url_https
p187
Vhttps://pbs.twimg.com/media/BoQPmDGCYAE_EsV.jpg
p188
sVsource_status_id
p189
I469517420844290048
sg36
V469517407493447681
p190
sVsizes
p191
(dp192
Vsmall
p193
(dp194
Vh
p195
I120
sVresize
p196
Vfit
p197
sVw
p198
I340
ssVlarge
p199
(dp200
g195
I362
sg196
Vfit
p201
sg198
I1024
ssVmedium
p202
(dp203
g195
I212
sg196
Vfit
p204
sg198
I600
ssVthumb
p205
(dp206
g195
I150
sg196
Vcrop
p207
sg198
I150
sssg24
(lp208
I139
aI140
asVtype
p209
Vphoto
p210
sg5
I469517407493447681
sVmedia_url
p211
Vhttp://pbs.twimg.com/media/BoQPmDGCYAE_EsV.jpg
p212
sassg67
Nsg36
V470495370435657728
p213
sg70
I5
sg73
Nsg45
I00
sVretweeted_status
p214
(dp215
g54
Nsg55
I00
sg56
VWe can be voted for @MwalimChurchill at MTV Africa music awards Best Group any hour via http://t.co/TM2B9ZXFme http://t.co/gg5iuEYD1E
p216
sg66
Nsg5
I469517420844290048
sg72
I1
sg64
V<a href="http://twitter.com/download/iphone" rel="nofollow">Twitter for iPhone</a>
p217
sg60
I00
sg62
Nsg16
(dp218
g47
(lp219
sg49
(lp220
(dp221
g5
I339093695
sg24
(lp222
I20
aI36
asg36
V339093695
p223
sg89
VMwalimChurchill
p224
sg94
VChurchill Kenya @ 50
p225
sasg51
(lp226
sg20
(lp227
(dp228
g18
Vhttp://t.co/TM2B9ZXFme
p229
sg24
(lp230
I88
aI110
asg26
Vhttp://www.mtvbase.com
p231
sg28
Vmtvbase.com
p232
sasg179
(lp233
(dp234
g26
Vhttp://twitter.com/SautiSol/status/469517420844290048/photo/1
p235
sg28
Vpic.twitter.com/gg5iuEYD1E
p236
sg18
Vhttp://t.co/gg5iuEYD1E
p237
sg187
Vhttps://pbs.twimg.com/media/BoQPmDGCYAE_EsV.jpg
p238
sg36
V469517407493447681
p239
sg191
(dp240
g193
(dp241
g195
I120
sg196
Vfit
p242
sg198
I340
ssg199
(dp243
g195
I362
sg196
Vfit
p244
sg198
I1024
ssg202
(dp245
g195
I212
sg196
Vfit
p246
sg198
I600
ssg205
(dp247
g195
I150
sg196
Vcrop
p248
sg198
I150
sssg24
(lp249
I111
aI133
asg209
Vphoto
p250
sg5
I469517407493447681
sg211
Vhttp://pbs.twimg.com/media/BoQPmDGCYAE_EsV.jpg
p251
sassg67
Nsg36
V469517420844290048
p252
sg70
I5
sg73
Nsg45
I00
sg71
Nsg63
Nsg130
I00
sg43
Ven
p253
sg58
VThu May 22 16:37:31 +0000 2014
p254
sg61
Nsg69
Nssg71
Nsg63
Nsg130
I00
sg43
Ven
p255
sg58
VSun May 25 09:23:32 +0000 2014
p256
sg61
Nsg69
Nssg74
I00
sg75
I10800
sg76
I151
sg30
VThinker || Art and Fashion fanatic || Genious || Progressive House is music ||
p257
sg78
I93
sg79
VNairobi, Kenya
p258
sg81
V0084B4
p259
sg83
Vhttp://pbs.twimg.com/profile_images/464795621489393664/Tan5HC-p_normal.jpeg
p260
sg85
Nsg86
I01
sg137
Vhttps://pbs.twimg.com/profile_banners/1420164661/1377772722
p261
sg87
Vhttp://pbs.twimg.com/profile_background_images/865612786/0355ccf1a2193e882fa1b70e51bcc77c.jpeg
p262
sg89
VThuo_Bryce
p263
sg43
Ven
p264
sg92
I01
sg93
I34
sg94
VThuo Brian Bryce
p265
sg96
Nsg18
Nsg58
VSat May 11 08:47:48 +0000 2013
p266
sg99
I00
sg100
VNairobi
p267
sg102
I00
sg103
I00
sg104
I00
sa(dp268
g2
Nsg3
I01
sg4
I00
sg5
I273314320
sg6
Vhttps://abs.twimg.com/images/themes/theme4/bg.gif
p269
sg8
I00
sg9
V3C3940
p270
sg11
Nsg12
Vhttps://pbs.twimg.com/profile_images/455015322689757184/j2lqMNdf_normal.jpeg
p271
sg14
V95E8EC
p272
sg16
(dp273
g18
(dp274
g20
(lp275
(dp276
g18
Vhttp://t.co/AkQXMYDlSu
p277
sg24
(lp278
I0
aI22
asg26
Vhttp://twitter.com
p279
sg28
Vtwitter.com
p280
sassg30
(dp281
g20
(lp282
sssg33
I156
sg34
V5ED4DC
p283
sg36
V273314320
p284
sg38
V0099B9
p285
sg40
I0
sg41
(dp286
g54
Nsg55
I00
sg56
Vhttp://t.co/EFQjec3zKo
p287
sg66
Nsg5
I474263468733112320
sg72
I0
sg64
V<a href="http://twitter.com/download/android" rel="nofollow">Twitter for Android</a>
p288
sg60
I00
sg62
Nsg16
(dp289
g47
(lp290
sg49
(lp291
sg51
(lp292
sg20
(lp293
sg179
(lp294
(dp295
g26
Vhttp://twitter.com/Lorraine_odipo/status/474263468733112320/photo/1
p296
sg28
Vpic.twitter.com/EFQjec3zKo
p297
sg18
Vhttp://t.co/EFQjec3zKo
p298
sg187
Vhttps://pbs.twimg.com/media/BpTsHKaIQAA-q3E.jpg
p299
sg36
V474263468577931264
p300
sg191
(dp301
g193
(dp302
g195
I604
sg196
Vfit
p303
sg198
I340
ssg199
(dp304
g195
I800
sg196
Vfit
p305
sg198
I450
ssg202
(dp306
g195
I800
sg196
Vfit
p307
sg198
I450
ssg205
(dp308
g195
I150
sg196
Vcrop
p309
sg198
I150
sssg24
(lp310
I0
aI22
asg209
Vphoto
p311
sg5
I474263468577931264
sg211
Vhttp://pbs.twimg.com/media/BpTsHKaIQAA-q3E.jpg
p312
sassg67
Nsg36
V474263468733112320
p313
sg70
I0
sg73
Nsg45
I00
sg71
Nsg63
Nsg130
I00
sg43
Vund
p314
sg58
VWed Jun 04 18:56:36 +0000 2014
p315
sg61
Nsg69
Nssg74
I00
sg75
I-18000
sg76
I361
sg30
V
p316
sg78
I130
sg79
VNairobi, Kenya
p317
sg81
V0099B9
p318
sg83
Vhttp://pbs.twimg.com/profile_images/455015322689757184/j2lqMNdf_normal.jpeg
p319
sg85
Nsg86
I01
sg87
Vhttp://abs.twimg.com/images/themes/theme4/bg.gif
p320
sg89
VLorraine_odipo
p321
sg43
Ven
p322
sg92
I00
sg93
I6
sg94
VLorraine martins 
p323
sg96
Nsg18
Vhttp://t.co/AkQXMYDlSu
p324
sg58
VMon Mar 28 07:33:27 +0000 2011
p325
sg99
I00
sg100
VQuito
p326
sg102
I00
sg103
I00
sg104
I00
sa(dp327
g2
Nsg3
I01
sg4
I00
sg5
I261318253
sg6
Vhttps://pbs.twimg.com/profile_background_images/378800000161857846/rHpYrW-n.jpeg
p328
sg8
I00
sg9
V333333
p329
sg11
Nsg12
Vhttps://pbs.twimg.com/profile_images/419132223665623040/nTpfHElx_normal.jpeg
p330
sg14
VDDEEF6
p331
sg16
(dp332
g18
(dp333
g20
(lp334
(dp335
g18
Vhttp://t.co/GAfSa5eRGv
p336
sg24
(lp337
I0
aI22
asg26
Vhttp://eventsrus.co.ke
p338
sg28
Veventsrus.co.ke
p339
sassg30
(dp340
g20
(lp341
sssg33
I153
sg34
VFFFFFF
p342
sg36
V261318253
p343
sg38
VC0DEED
p344
sg40
I0
sg41
(dp345
g54
Nsg55
I00
sg56
VRT @_Che___Guevara_: The third world must end imperialist cultural domination; the world has had enough of capitalist media and its exploit\u2026
p346
sg66
Nsg5
I471717215767912449
sg72
I0
sg64
V<a href="https://twitter.com/download/android" rel="nofollow">Twitter for  Android</a>
p347
sg60
I00
sg62
Nsg16
(dp348
g47
(lp349
sg49
(lp350
(dp351
g5
I382111375
sg24
(lp352
I3
aI19
asg36
V382111375
p353
sg89
V_Che___Guevara_
p354
sg94
VChe Guevara
p355
sasg51
(lp356
sg20
(lp357
ssg67
Nsg36
V471717215767912449
p358
sg70
I6
sg73
Nsg45
I00
sg214
(dp359
g43
Ven
p360
sg45
I00
sg16
(dp361
g47
(lp362
sg49
(lp363
sg51
(lp364
sg20
(lp365
ssg54
Nsg55
I00
sg56
VThe third world must end imperialist cultural domination; the world has had enough of capitalist media and its exploitive cultural flows.
p366
sg58
VWed May 28 18:13:41 +0000 2014
p367
sg60
I00
sg61
Nsg62
Nsg63
Nsg64
V<a href="http://tweetadder.com" rel="nofollow">TweetAdder v4</a>
p368
sg66
Nsg67
Nsg36
V471715949465600000
p369
sg69
Nsg70
I6
sg71
Nsg5
I471715949465600000
sg72
I4
sg73
Nssg71
Nsg63
Nsg43
Ven
p370
sg58
VWed May 28 18:18:42 +0000 2014
p371
sg61
Nsg69
Nssg74
I00
sg75
I10800
sg76
I2046
sg30
V#Christ #socialmediamarketing #guerillamarketing #advertising #creative #PanAfrican #CFC #AllBlacks #Ferrari #House #hiphop #
p372
sg78
I239
sg79
VNairobi 
p373
sg81
V0084B4
p374
sg83
Vhttp://pbs.twimg.com/profile_images/419132223665623040/nTpfHElx_normal.jpeg
p375
sg85
Nsg86
I01
sg137
Vhttps://pbs.twimg.com/profile_banners/261318253/1388763901
p376
sg87
Vhttp://pbs.twimg.com/profile_background_images/378800000161857846/rHpYrW-n.jpeg
p377
sg89
Vwachirah_gitahi
p378
sg43
Ven
p379
sg92
I01
sg93
I17
sg94
VWachirah Gitahi
p380
sg96
Nsg18
Vhttp://t.co/GAfSa5eRGv
p381
sg58
VSat Mar 05 18:19:20 +0000 2011
p382
sg99
I00
sg100
VBaghdad
p383
sg102
I00
sg103
I00
sg104
I00
sa(dp384
g2
Nsg3
I01
sg4
I00
sg5
I248992961
sg6
Vhttps://abs.twimg.com/images/themes/theme1/bg.png
p385
sg8
I00
sg9
V333333
p386
sg11
Nsg12
Vhttps://pbs.twimg.com/profile_images/461923138960228352/v-Fbpt1a_normal.jpeg
p387
sg14
VDDEEF6
p388
sg16
(dp389
g30
(dp390
g20
(lp391
sssg33
I166
sg34
VC0DEED
p392
sg36
V248992961
p393
sg38
VC0DEED
p394
sg40
I0
sg41
(dp395
g43
Ves
p396
sg45
I00
sg16
(dp397
g47
(lp398
sg49
(lp399
sg51
(lp400
(dp401
g24
(lp402
I0
aI7
asg56
VAluoch
p403
sasg20
(lp404
ssg54
Nsg55
I00
sg56
V#Aluoch yayeeeeee!!!!!!!! National Tv! Yayeeeeeeee!!!
p405
sg58
VWed Jun 04 18:49:16 +0000 2014
p406
sg60
I00
sg61
Nsg62
Nsg63
Nsg64
V<a href="http://twitter.com/download/android" rel="nofollow">Twitter for Android</a>
p407
sg66
Nsg67
Nsg36
V474261622757007360
p408
sg69
Nsg70
I0
sg71
Nsg5
I474261622757007360
sg72
I0
sg73
Nssg74
I00
sg75
Nsg76
I248
sg30
VSilhouette of unfathomable passion, Event and Brand strategists, Marketing enthusiast, Lover of humanity.
p409
sg78
I232
sg79
VNairobi,Kenya
p410
sg81
V0084B4
p411
sg83
Vhttp://pbs.twimg.com/profile_images/461923138960228352/v-Fbpt1a_normal.jpeg
p412
sg85
Nsg86
I01
sg87
Vhttp://abs.twimg.com/images/themes/theme1/bg.png
p413
sg89
VLaziziye
p414
sg43
Ven
p415
sg92
I00
sg93
I4
sg94
VMuthoniGitahi
p416
sg96
Nsg18
Nsg58
VTue Feb 08 03:57:29 +0000 2011
p417
sg99
I00
sg100
Nsg102
I00
sg103
I01
sg104
I00
sa(dp418
Vfollow_request_sent
p419
NsVprofile_use_background_image
p420
I01
sVdefault_profile_image
p421
I00
sVid
p422
I140820847
sVprofile_background_image_url_https
p423
Vhttps://pbs.twimg.com/profile_background_images/820461338/a5becffca47b0270040b5372f2eb9c55.jpeg
p424
sVverified
p425
I00
sVprofile_text_color
p426
V3D1957
p427
sVmuting
p428
NsVprofile_image_url_https
p429
Vhttps://pbs.twimg.com/profile_images/378800000429319840/7d9757c6916e930a4694e46b82e7e13f_normal.jpeg
p430
sVprofile_sidebar_fill_color
p431
V7AC3EE
p432
sVentities
p433
(dp434
Vdescription
p435
(dp436
Vurls
p437
(lp438
sssVfollowers_count
p439
I360
sVprofile_sidebar_border_color
p440
VFFFFFF
p441
sVid_str
p442
V140820847
p443
sVprofile_background_color
p444
V642D8B
p445
sVlisted_count
p446
I2
sVstatus
p447
(dp448
Vlang
p449
Ven
p450
sVfavorited
p451
I00
sg433
(dp452
Vsymbols
p453
(lp454
sVuser_mentions
p455
(lp456
sVhashtags
p457
(lp458
sg437
(lp459
ssVcontributors
p460
NsVtruncated
p461
I00
sVtext
p462
VDamn this allergy
p463
sVcreated_at
p464
VWed May 28 11:59:26 +0000 2014
p465
sVretweeted
p466
I00
sVin_reply_to_status_id_str
p467
NsVcoordinates
p468
NsVin_reply_to_user_id_str
p469
NsVsource
p470
V<a href="http://twitter.com/#!/download/ipad" rel="nofollow">Twitter for iPad</a>
p471
sVin_reply_to_status_id
p472
NsVin_reply_to_screen_name
p473
Nsg442
V471621767002599424
p474
sVplace
p475
NsVretweet_count
p476
I0
sVgeo
p477
Nsg422
I471621767002599424
sVfavorite_count
p478
I0
sVin_reply_to_user_id
p479
NssVis_translation_enabled
p480
I00
sVutc_offset
p481
I-7200
sVstatuses_count
p482
I6388
sg435
VBitter Sweet Symphony...IG: Miss_Thairu
p483
sVfriends_count
p484
I341
sVlocation
p485
VNairobi,Kenya
p486
sVprofile_link_color
p487
VFF0000
p488
sVprofile_image_url
p489
Vhttp://pbs.twimg.com/profile_images/378800000429319840/7d9757c6916e930a4694e46b82e7e13f_normal.jpeg
p490
sVfollowing
p491
NsVgeo_enabled
p492
I01
sVprofile_banner_url
p493
Vhttps://pbs.twimg.com/profile_banners/140820847/1363895948
p494
sVprofile_background_image_url
p495
Vhttp://pbs.twimg.com/profile_background_images/820461338/a5becffca47b0270040b5372f2eb9c55.jpeg
p496
sVscreen_name
p497
VTheyCallHer_Dee
p498
sg449
Ven
p499
sVprofile_background_tile
p500
I01
sVfavourites_count
p501
I7
sVname
p502
VDee Thairu
p503
sVnotifications
p504
NsVurl
p505
Nsg464
VThu May 06 13:03:57 +0000 2010
p506
sVcontributors_enabled
p507
I00
sVtime_zone
p508
VGreenland
p509
sVprotected
p510
I00
sVdefault_profile
p511
I00
sVis_translator
p512
I00
sa(dp513
g419
Nsg420
I01
sg421
I00
sg422
I277095221
sg423
Vhttps://pbs.twimg.com/profile_background_images/682639521/43672a19f6403be93cf800ab55110069.gif
p514
sg425
I00
sg426
V362720
p515
sg428
Nsg429
Vhttps://pbs.twimg.com/profile_images/1465924084/LOGO1_normal.PNG
p516
sg431
VE5507E
p517
sg433
(dp518
g505
(dp519
g437
(lp520
(dp521
g505
Vhttp://t.co/n6rll5E5u0
p522
sVindices
p523
(lp524
I0
aI22
asVexpanded_url
p525
Vhttp://nditronics.com
p526
sVdisplay_url
p527
Vnditronics.com
p528
sassg435
(dp529
g437
(lp530
sssg439
I335
sg440
VFFFFFF
p531
sg442
V277095221
p532
sg444
VEBEBEB
p533
sg446
I0
sg447
(dp534
g449
Ven
p535
sg451
I00
sg433
(dp536
g453
(lp537
sg455
(lp538
sg457
(lp539
sg437
(lp540
ssg460
Nsg461
I00
sg462
VKenya Readies Debut Eurobond After 17-Year Wait: Africa Credit
p541
sg464
VFri Jun 06 16:25:17 +0000 2014
p542
sg466
I00
sg467
Nsg468
Nsg469
Nsg470
V<a href="http://twitter.com" rel="nofollow">Twitter Web Client</a>
p543
sg472
Nsg473
Nsg442
V474950162650247168
p544
sg475
Nsg476
I0
sg477
Nsg422
I474950162650247168
sg478
I0
sg479
Nssg480
I00
sg481
I10800
sg482
I3677
sg435
VYour One Stop ICT Solutions
p545
sg484
I2000
sg485
VNAIROBI. KENYA
p546
sg487
V990000
p547
sg489
Vhttp://pbs.twimg.com/profile_images/1465924084/LOGO1_normal.PNG
p548
sg491
Nsg492
I01
sg493
Vhttps://pbs.twimg.com/profile_banners/277095221/1350022096
p549
sg495
Vhttp://pbs.twimg.com/profile_background_images/682639521/43672a19f6403be93cf800ab55110069.gif
p550
sg497
Vnditronicsltd
p551
sg449
Ven
p552
sg500
I01
sg501
I13
sg502
VNditronics Ltd
p553
sg504
Nsg505
Vhttp://t.co/n6rll5E5u0
p554
sg464
VMon Apr 04 17:51:45 +0000 2011
p555
sg507
I00
sg508
VNairobi
p556
sg510
I00
sg511
I00
sg512
I00
sa.