(lp0
(dp1
Vfollow_request_sent
p2
NsVprofile_use_background_image
p3
I00
sVdefault_profile_image
p4
I00
sVid
p5
I206610721
sVprofile_background_image_url_https
p6
Vhttps://pbs.twimg.com/profile_background_images/378800000090382804/4640a437ab5d408451b46fb360a5d15e.jpeg
p7
sVverified
p8
I00
sVprofile_text_color
p9
V3C3940
p10
sVmuting
p11
NsVprofile_image_url_https
p12
Vhttps://pbs.twimg.com/profile_images/472309151688060928/4M1h46z9_normal.jpeg
p13
sVprofile_sidebar_fill_color
p14
V95E8EC
p15
sVentities
p16
(dp17
Vurl
p18
(dp19
Vurls
p20
(lp21
(dp22
g18
Vhttp://t.co/lo1FiEvAKb
p23
sVindices
p24
(lp25
I0
aI22
asVexpanded_url
p26
Vhttp://www.mijungu.com
p27
sVdisplay_url
p28
Vmijungu.com
p29
sassVdescription
p30
(dp31
g20
(lp32
sssVfollowers_count
p33
I840
sVprofile_sidebar_border_color
p34
V000000
p35
sVid_str
p36
V206610721
p37
sVprofile_background_color
p38
V22199E
p39
sVlisted_count
p40
I2
sVstatus
p41
(dp42
Vcontributors
p43
NsVtruncated
p44
I00
sVtext
p45
VUlinzi Unaanza na Mimi, Ulinzi Unaanza na Wewe http://t.co/DImk0z0xIa
p46
sVin_reply_to_status_id
p47
Nsg5
I474456539001274368
sVfavorite_count
p48
I0
sVsource
p49
V<a href="http://www.facebook.com/twitter" rel="nofollow">Facebook</a>
p50
sVretweeted
p51
I00
sVcoordinates
p52
Nsg16
(dp53
Vsymbols
p54
(lp55
sVuser_mentions
p56
(lp57
sVhashtags
p58
(lp59
sg20
(lp60
(dp61
g18
Vhttp://t.co/DImk0z0xIa
p62
sg24
(lp63
I47
aI69
asg26
Vhttp://fb.me/3CKffLons
p64
sg28
Vfb.me/3CKffLons
p65
sassVin_reply_to_screen_name
p66
Nsg36
V474456539001274368
p67
sVretweet_count
p68
I0
sVin_reply_to_user_id
p69
NsVfavorited
p70
I00
sVgeo
p71
NsVin_reply_to_user_id_str
p72
NsVpossibly_sensitive
p73
I00
sVlang
p74
Vhr
p75
sVcreated_at
p76
VThu Jun 05 07:43:48 +0000 2014
p77
sVin_reply_to_status_id_str
p78
NsVplace
p79
NssVis_translation_enabled
p80
I00
sVutc_offset
p81
I-18000
sVstatuses_count
p82
I1135
sg30
VMember of National youth Council
p83
sVfriends_count
p84
I2022
sVlocation
p85
VNairobi
p86
sVprofile_link_color
p87
V24BD13
p88
sVprofile_image_url
p89
Vhttp://pbs.twimg.com/profile_images/472309151688060928/4M1h46z9_normal.jpeg
p90
sVfollowing
p91
NsVgeo_enabled
p92
I01
sVprofile_banner_url
p93
Vhttps://pbs.twimg.com/profile_banners/206610721/1401225907
p94
sVprofile_background_image_url
p95
Vhttp://pbs.twimg.com/profile_background_images/378800000090382804/4640a437ab5d408451b46fb360a5d15e.jpeg
p96
sVscreen_name
p97
Vbmijungu
p98
sg74
Ven
p99
sVprofile_background_tile
p100
I00
sVfavourites_count
p101
I49
sVname
p102
VBilly Mijungu
p103
sVnotifications
p104
Nsg18
Vhttp://t.co/lo1FiEvAKb
p105
sg76
VSat Oct 23 09:57:56 +0000 2010
p106
sVcontributors_enabled
p107
I00
sVtime_zone
p108
VQuito
p109
sVprotected
p110
I00
sVdefault_profile
p111
I00
sVis_translator
p112
I00
sa(dp113
g2
Nsg3
I01
sg4
I00
sg5
I2360836070
sg6
Vhttps://abs.twimg.com/images/themes/theme6/bg.gif
p114
sg8
I00
sg9
V333333
p115
sg11
Nsg12
Vhttps://pbs.twimg.com/profile_images/469830761856528384/UAN6J9cO_normal.jpeg
p116
sg14
VA0C5C7
p117
sg16
(dp118
g30
(dp119
g20
(lp120
sssg33
I532
sg34
V86A4A6
p121
sg36
V2360836070
p122
sg38
V709397
p123
sg40
I0
sg41
(dp124
g43
Nsg44
I00
sg45
Vthis Friday 2pm we are CELEBRATING OUR 1ST ANNIVERSARY.. KARIBU http://t.co/ID5ESQX7Eb
p125
sg47
Nsg5
I474215017534222338
sg48
I1
sg49
V<a href="http://twitter.com" rel="nofollow">Twitter Web Client</a>
p126
sg51
I00
sg52
Nsg16
(dp127
g54
(lp128
sg56
(lp129
sg58
(lp130
sg20
(lp131
sVmedia
p132
(lp133
(dp134
g26
Vhttp://twitter.com/thepapclan/status/474215017534222338/photo/1
p135
sg28
Vpic.twitter.com/ID5ESQX7Eb
p136
sg18
Vhttp://t.co/ID5ESQX7Eb
p137
sVmedia_url_https
p138
Vhttps://pbs.twimg.com/media/BpTAAnGCEAA6QWA.jpg
p139
sg36
V474214977507561472
p140
sVsizes
p141
(dp142
Vlarge
p143
(dp144
Vh
p145
I589
sVresize
p146
Vfit
p147
sVw
p148
I417
ssVsmall
p149
(dp150
g145
I480
sg146
Vfit
p151
sg148
I340
ssVmedium
p152
(dp153
g145
I589
sg146
Vfit
p154
sg148
I417
ssVthumb
p155
(dp156
g145
I150
sg146
Vcrop
p157
sg148
I150
sssg24
(lp158
I64
aI86
asVtype
p159
Vphoto
p160
sg5
I474214977507561472
sVmedia_url
p161
Vhttp://pbs.twimg.com/media/BpTAAnGCEAA6QWA.jpg
p162
sassg66
Nsg36
V474215017534222338
p163
sg68
I0
sg69
Nsg70
I00
sg71
Nsg72
Nsg73
I00
sg74
Ven
p164
sg76
VWed Jun 04 15:44:05 +0000 2014
p165
sg78
Nsg79
Nssg80
I00
sg81
Nsg82
I138
sg30
VAn afternoon out-doors with great intelligent SPOKEN WORD POETRY and SWEET MELLOW VOICES from some of the greatest young vocalists and live bands.
p166
sg84
I1712
sg85
VNairobi
p167
sg87
VFF3300
p168
sg89
Vhttp://pbs.twimg.com/profile_images/469830761856528384/UAN6J9cO_normal.jpeg
p169
sg91
Nsg92
I01
sg93
Vhttps://pbs.twimg.com/profile_banners/2360836070/1400851027
p170
sg95
Vhttp://abs.twimg.com/images/themes/theme6/bg.gif
p171
sg97
Vthepapclan
p172
sg74
Ven
p173
sg100
I00
sg101
I0
sg102
Vthepapclan
p174
sg104
Nsg18
Nsg76
VTue Feb 25 09:56:01 +0000 2014
p175
sg107
I00
sg108
Nsg110
I00
sg111
I00
sg112
I00
sa(dp176
g2
Nsg3
I01
sg4
I00
sg5
I548699525
sg6
Vhttps://abs.twimg.com/images/themes/theme1/bg.png
p177
sg8
I00
sg9
V333333
p178
sg11
Nsg12
Vhttps://pbs.twimg.com/profile_images/2654259485/3dccf36cb5fa92d6b8c009dbbceeddac_normal.png
p179
sg14
VDDEEF6
p180
sg16
(dp181
g18
(dp182
g20
(lp183
(dp184
g18
Vhttps://t.co/a0dXIjk2aX
p185
sg24
(lp186
I0
aI23
asg26
Vhttps://www.facebook.com/muthamaha
p187
sg28
Vfacebook.com/muthamaha
p188
sassg30
(dp189
g20
(lp190
sssg33
I116
sg34
VC0DEED
p191
sg36
V548699525
p192
sg38
VC0DEED
p193
sg40
I2
sg41
(dp194
g74
Ven
p195
sg70
I00
sg16
(dp196
g54
(lp197
sg56
(lp198
sg58
(lp199
sg20
(lp200
ssg43
Nsg44
I00
sg45
VThose who say it cannot be done\u000ashould not interrupt the ones\u000adoing\u000ait...goodmorning Africa.
p201
sg76
VThu May 22 03:01:31 +0000 2014
p202
sg51
I00
sg78
Nsg52
Nsg72
Nsg49
V<a href="https://mobile.twitter.com" rel="nofollow">Mobile Web (M2)</a>
p203
sg47
Nsg66
Nsg36
V469312069213634560
p204
sg79
Nsg68
I0
sg71
Nsg5
I469312069213634560
sg48
I0
sg69
Nssg80
I00
sg81
I10800
sg82
I140
sg30
Vyoung scientist with interest for conservation of natural resources and sustainable development.STEP SITE MANAGER at the National Museums of Kenya,Nairobi.
p205
sg84
I616
sg85
Vnairobi
p206
sg87
V0084B4
p207
sg89
Vhttp://pbs.twimg.com/profile_images/2654259485/3dccf36cb5fa92d6b8c009dbbceeddac_normal.png
p208
sg91
Nsg92
I01
sg95
Vhttp://abs.twimg.com/images/themes/theme1/bg.png
p209
sg97
VEricMuthama
p210
sg74
Ven
p211
sg100
I00
sg101
I2
sg102
VMuthama eric
p212
sg104
Nsg18
Vhttps://t.co/a0dXIjk2aX
p213
sg76
VSun Apr 08 20:36:32 +0000 2012
p214
sg107
I00
sg108
VNairobi
p215
sg110
I00
sg111
I01
sg112
I00
sa.