(lp0
(dp1
Vfollow_request_sent
p2
NsVprofile_use_background_image
p3
I01
sVdefault_profile_image
p4
I00
sVid
p5
I24137746
sVprofile_background_image_url_https
p6
Vhttps://abs.twimg.com/images/themes/theme9/bg.gif
p7
sVverified
p8
I00
sVprofile_text_color
p9
V666666
p10
sVmuting
p11
NsVprofile_image_url_https
p12
Vhttps://pbs.twimg.com/profile_images/512979543/mark_normal.jpg
p13
sVprofile_sidebar_fill_color
p14
V252429
p15
sVentities
p16
(dp17
Vurl
p18
(dp19
Vurls
p20
(lp21
(dp22
g18
Vhttp://t.co/bf7PJZkfDp
p23
sVindices
p24
(lp25
I0
aI22
asVexpanded_url
p26
Vhttp://www.upande.com
p27
sVdisplay_url
p28
Vupande.com
p29
sassVdescription
p30
(dp31
g20
(lp32
sssVfollowers_count
p33
I654
sVprofile_sidebar_border_color
p34
V181A1E
p35
sVid_str
p36
V24137746
p37
sVprofile_background_color
p38
V1A1B1F
p39
sVlisted_count
p40
I37
sVstatus
p41
(dp42
Vcontributors
p43
NsVtruncated
p44
I00
sVtext
p45
VRT @doreenapollos: Most journalists have close relations with LEADERS,why waste that privilege while you can use it to be a voice for those\u2026
p46
sVin_reply_to_status_id
p47
Nsg5
I475335103787589632
sVfavorite_count
p48
I0
sVsource
p49
V<a href="http://twitter.com/download/android" rel="nofollow">Twitter for Android</a>
p50
sVretweeted
p51
I00
sVcoordinates
p52
Nsg16
(dp53
Vsymbols
p54
(lp55
sVuser_mentions
p56
(lp57
(dp58
g5
I323236167
sg24
(lp59
I3
aI17
asg36
V323236167
p60
sVscreen_name
p61
Vdoreenapollos
p62
sVname
p63
VDoreenApollos
p64
sasVhashtags
p65
(lp66
sg20
(lp67
ssVin_reply_to_screen_name
p68
Nsg36
V475335103787589632
p69
sVretweet_count
p70
I7
sVin_reply_to_user_id
p71
NsVfavorited
p72
I00
sVretweeted_status
p73
(dp74
Vlang
p75
Ven
p76
sg72
I00
sg16
(dp77
g54
(lp78
sg56
(lp79
sg65
(lp80
sg20
(lp81
ssg43
Nsg44
I00
sg45
VMost journalists have close relations with LEADERS,why waste that privilege while you can use it to be a voice for those who cant reach them
p82
sVcreated_at
p83
VWed Jun 04 11:30:49 +0000 2014
p84
sg51
I00
sVin_reply_to_status_id_str
p85
Nsg52
NsVin_reply_to_user_id_str
p86
Nsg49
V<a href="http://twitter.com" rel="nofollow">Twitter Web Client</a>
p87
sg47
Nsg68
Nsg36
V474151280051777536
p88
sVplace
p89
Nsg70
I7
sVgeo
p90
Nsg5
I474151280051777536
sg48
I0
sg71
Nssg90
Nsg86
Nsg75
Ven
p91
sg83
VSat Jun 07 17:54:54 +0000 2014
p92
sg85
Nsg89
NssVis_translation_enabled
p93
I00
sVutc_offset
p94
I10800
sVstatuses_count
p95
I1397
sg30
VGeo, GIS, Open, mobile, sensors, tech, Africa, birds, @LakeVicCichlids. ATCK, Xoogler, founder of @upande @virtualkenya @washgis @kontent @anza
p96
sVfriends_count
p97
I588
sVlocation
p98
VNairobi
p99
sVprofile_link_color
p100
V2FC2EF
p101
sVprofile_image_url
p102
Vhttp://pbs.twimg.com/profile_images/512979543/mark_normal.jpg
p103
sVfollowing
p104
NsVgeo_enabled
p105
I01
sVprofile_banner_url
p106
Vhttps://pbs.twimg.com/profile_banners/24137746/1364586578
p107
sVprofile_background_image_url
p108
Vhttp://abs.twimg.com/images/themes/theme9/bg.gif
p109
sg61
Vmdeblois
p110
sg75
Ven
p111
sVprofile_background_tile
p112
I00
sVfavourites_count
p113
I41
sg63
VMark de Blois
p114
sVnotifications
p115
Nsg18
Vhttp://t.co/bf7PJZkfDp
p116
sg83
VFri Mar 13 06:13:42 +0000 2009
p117
sVcontributors_enabled
p118
I00
sVtime_zone
p119
VNairobi
p120
sVprotected
p121
I00
sVdefault_profile
p122
I00
sVis_translator
p123
I00
sa(dp124
g2
Nsg3
I01
sg4
I00
sg5
I246715678
sg6
Vhttps://pbs.twimg.com/profile_background_images/670662312/77c2f10ea46c7ded627fd957f84568ec.png
p125
sg8
I00
sg9
V9DDD95
p126
sg11
Nsg12
Vhttps://pbs.twimg.com/profile_images/378800000224179855/e07cca0f82f2b4453d98f628cb7e2b3d_normal.jpeg
p127
sg14
V1A3F57
p128
sg16
(dp129
g30
(dp130
g20
(lp131
sssg33
I346
sg34
VA0EEF5
p132
sg36
V246715678
p133
sg38
VFFFFFF
p134
sg40
I1
sg41
(dp135
g75
Ven
p136
sg72
I00
sg16
(dp137
g54
(lp138
sg56
(lp139
sg65
(lp140
(dp141
g24
(lp142
I8
aI15
asg45
VDavido
p143
sa(dp144
g24
(lp145
I20
aI28
asg45
VDiamond
p146
sa(dp147
g24
(lp148
I85
aI95
asg45
VMajorFail
p149
sa(dp150
g24
(lp151
I96
aI104
asg45
VMtvmama
p152
sa(dp153
g24
(lp154
I105
aI108
asg45
VFb
p155
sasg20
(lp156
ssg43
Nsg44
I00
sg45
VWhy are #Davido and #Diamond singing over a playback!.spoiling the song experience!  #MajorFail #Mtvmama #Fb
p157
sg83
VSat Jun 07 20:47:39 +0000 2014
p158
sg51
I00
sg85
Nsg52
Nsg86
Nsg49
V<a href="https://twitter.com/download/android" rel="nofollow">Twitter for Android Tablets</a>
p159
sg47
Nsg68
Nsg36
V475378575458447360
p160
sg89
Nsg70
I0
sg90
Nsg5
I475378575458447360
sg48
I0
sg71
Nssg93
I00
sg94
I10800
sg95
I8472
sg30
VA blessed child of God, Daughter to loving parents, Sister to crazy siblings, Mother to my adorable daughter & a loving friend to many. Vet Doctor by profession
p161
sg97
I340
sg98
VNairobi
p162
sg100
V72B9BF
p163
sg102
Vhttp://pbs.twimg.com/profile_images/378800000224179855/e07cca0f82f2b4453d98f628cb7e2b3d_normal.jpeg
p164
sg104
Nsg105
I01
sg106
Vhttps://pbs.twimg.com/profile_banners/246715678/1370954156
p165
sg108
Vhttp://pbs.twimg.com/profile_background_images/670662312/77c2f10ea46c7ded627fd957f84568ec.png
p166
sg61
Vdiananyagem
p167
sg75
Ven
p168
sg112
I01
sg113
I12
sg63
VDiana Onyango
p169
sg115
Nsg18
Nsg83
VThu Feb 03 09:51:42 +0000 2011
p170
sg118
I00
sg119
VAfrica/Nairobi
p171
sg121
I00
sg122
I00
sg123
I00
sa(dp172
g2
Nsg3
I01
sg4
I00
sg5
I301472252
sg6
Vhttps://abs.twimg.com/images/themes/theme10/bg.gif
p173
sg8
I00
sg9
V3D1957
p174
sg11
Nsg12
Vhttps://pbs.twimg.com/profile_images/2327575896/95qaa178j7ij7o6xtxyl_normal.jpeg
p175
sg14
V7AC3EE
p176
sg16
(dp177
g30
(dp178
g20
(lp179
sssg33
I159
sg34
V65B0DA
p180
sg36
V301472252
p181
sg38
V642D8B
p182
sg40
I8
sg41
(dp183
g75
Ven
p184
sg72
I00
sg16
(dp185
g54
(lp186
sg56
(lp187
sg65
(lp188
(dp189
g24
(lp190
I0
aI14
asg45
Vlivestockfish
p191
sa(dp192
g24
(lp193
I16
aI21
asg45
VILRI
p194
sa(dp195
g24
(lp196
I26
aI30
asg45
VSNV
p197
sasg20
(lp198
ssg43
Nsg44
I00
sg45
V#livestockfish, #ILRI and #SNV colleagues mtg this afternoon 2explore collaboration activities
p199
sg83
VTue May 27 15:01:17 +0000 2014
p200
sg51
I00
sg85
Nsg52
Nsg86
Nsg49
V<a href="http://www.twitter.com" rel="nofollow">Twitter for Windows Phone</a>
p201
sg47
Nsg68
Nsg36
V471305146098794496
p202
sg89
Nsg70
I0
sg90
Nsg5
I471305146098794496
sg48
I0
sg71
Nssg93
I00
sg94
I-18000
sg95
I343
sg30
VInformation management, knowledge exchange. Comms with the Livestock and Fish CGIAR Research Program @ILRI ,livestock equals more nutrition
p203
sg97
I222
sg98
VNairobi, Kenya
p204
sg100
VFF0000
p205
sg102
Vhttp://pbs.twimg.com/profile_images/2327575896/95qaa178j7ij7o6xtxyl_normal.jpeg
p206
sg104
Nsg105
I01
sg108
Vhttp://abs.twimg.com/images/themes/theme10/bg.gif
p207
sg61
Vekatingi
p208
sg75
Ven
p209
sg112
I01
sg113
I3
sg63
VEve Namvua Manon 
p210
sg115
Nsg18
Nsg83
VThu May 19 14:42:15 +0000 2011
p211
sg118
I00
sg119
VQuito
p212
sg121
I00
sg122
I00
sg123
I00
sa(dp213
g2
Nsg3
I01
sg4
I00
sg5
I1076088830
sg6
Vhttps://abs.twimg.com/images/themes/theme1/bg.png
p214
sg8
I00
sg9
V333333
p215
sg11
Nsg12
Vhttps://pbs.twimg.com/profile_images/3094186163/6f0c724acefb76d08632802a80ee4022_normal.png
p216
sg14
VDDEEF6
p217
sg16
(dp218
g30
(dp219
g20
(lp220
sssg33
I114
sg34
VC0DEED
p221
sg36
V1076088830
p222
sg38
VC0DEED
p223
sg40
I1
sg41
(dp224
g75
Ven
p225
sg72
I00
sg16
(dp226
g54
(lp227
sg56
(lp228
sg65
(lp229
sg20
(lp230
ssg43
Nsg44
I00
sg45
VFor your payments, deliveries, shopping.. For all your Errands..call 0770647474...
p231
sg83
VWed Apr 30 10:10:43 +0000 2014
p232
sg51
I00
sg85
Nsg52
Nsg86
Nsg49
V<a href="http://www.facebook.com/twitter" rel="nofollow">Facebook</a>
p233
sg47
Nsg68
Nsg36
V461447549313101824
p234
sg89
Nsg70
I0
sg90
Nsg5
I461447549313101824
sg48
I0
sg71
Nssg93
I00
sg94
Nsg95
I140
sg30
Verrandgirl is meant to make life easy for you.....call 0725653512/0770647474 if you need any kind of errand done, includes payments, deliveries,shopping
p235
sg97
I1168
sg98
VNairobi
p236
sg100
V0084B4
p237
sg102
Vhttp://pbs.twimg.com/profile_images/3094186163/6f0c724acefb76d08632802a80ee4022_normal.png
p238
sg104
Nsg105
I01
sg108
Vhttp://abs.twimg.com/images/themes/theme1/bg.png
p239
sg61
Verrandgirl2013
p240
sg75
Ven
p241
sg112
I00
sg113
I0
sg63
Verrandgirl
p242
sg115
Nsg18
Nsg83
VThu Jan 10 08:58:54 +0000 2013
p243
sg118
I00
sg119
Nsg121
I00
sg122
I01
sg123
I00
sa(dp244
g2
Nsg3
I01
sg4
I00
sg5
I2155410795
sg6
Vhttps://abs.twimg.com/images/themes/theme1/bg.png
p245
sg8
I00
sg9
V333333
p246
sg11
Nsg12
Vhttps://pbs.twimg.com/profile_images/422579565610160128/7OoBpfgS_normal.jpeg
p247
sg14
VDDEEF6
p248
sg16
(dp249
g18
(dp250
g20
(lp251
(dp252
g18
Vhttp://t.co/0FFRWwIKAg
p253
sg24
(lp254
I0
aI22
asg26
Vhttp://Www.Brad.Co.ke
p255
sg28
VBrad.Co.ke
p256
sassg30
(dp257
g20
(lp258
sssg33
I317
sg34
VC0DEED
p259
sg36
V2155410795
p260
sg38
VC0DEED
p261
sg40
I0
sg41
(dp262
g75
Ven
p263
sg72
I00
sg16
(dp264
g54
(lp265
sg56
(lp266
sg65
(lp267
sg20
(lp268
ssg43
Nsg44
I00
sg45
VLife Is Just A Test And Am Trying My Best To Give It Nothing Less...!!
p269
sg83
VSun May 18 07:35:39 +0000 2014
p270
sg51
I00
sg85
Nsg52
Nsg86
Nsg49
V<a href="http://www.hootsuite.com" rel="nofollow">Hootsuite</a>
p271
sg47
Nsg68
Nsg36
V467931504879095810
p272
sg89
Nsg70
I0
sg90
Nsg5
I467931504879095810
sg48
I0
sg71
Nssg93
I00
sg94
Nsg95
I132
sg30
VA Runway/ Fashion model/P.R.O/A believer and A Humble Dude Whos Outgoing,Loving,Mature And Understanding too..The Rest Is For You And I To Find Out.
p273
sg97
I1142
sg98
VNairobi
p274
sg100
V0084B4
p275
sg102
Vhttp://pbs.twimg.com/profile_images/422579565610160128/7OoBpfgS_normal.jpeg
p276
sg104
Nsg105
I01
sg108
Vhttp://abs.twimg.com/images/themes/theme1/bg.png
p277
sg61
VRNjukiah
p278
sg75
Ven
p279
sg112
I00
sg113
I76
sg63
VBrad Keysha
p280
sg115
Nsg18
Vhttp://t.co/0FFRWwIKAg
p281
sg83
VSun Oct 27 06:59:33 +0000 2013
p282
sg118
I00
sg119
Nsg121
I00
sg122
I01
sg123
I00
sa(dp283
g2
Nsg3
I01
sg4
I00
sg5
I335201825
sg6
Vhttps://abs.twimg.com/images/themes/theme13/bg.gif
p284
sg8
I00
sg9
V333333
p285
sg11
Nsg12
Vhttps://pbs.twimg.com/profile_images/2755111232/a3652bb83b1ea0ddc7f972224e44b1ff_normal.png
p286
sg14
VFFFFFF
p287
sg16
(dp288
g18
(dp289
g20
(lp290
(dp291
g18
Vhttp://t.co/cR43pXyjCj
p292
sg24
(lp293
I0
aI22
asg26
Vhttp://foodandrural.wordpress.com/
p294
sg28
Vfoodandrural.wordpress.com
p295
sassg30
(dp296
g20
(lp297
sssg33
I49
sg34
VEEEEEE
p298
sg36
V335201825
p299
sg38
VB2DFDA
p300
sg40
I9
sg41
(dp301
g43
Nsg44
I00
sg45
VRT @ChinaFile: This is what #Urbanfarming looks like in China-http://t.co/z1UKAFBu69 @photojournalism http://t.co/JNA1qLaLun
p302
sg47
Nsg5
I464060362233745408
sg48
I0
sg49
V<a href="https://twitter.com/download/android" rel="nofollow">Twitter for  Android</a>
p303
sg51
I00
sg52
Nsg16
(dp304
g54
(lp305
sg56
(lp306
(dp307
g5
I84786801
sg24
(lp308
I3
aI13
asg36
V84786801
p309
sg61
VChinaFile
p310
sg63
VChinaFile
p311
sa(dp312
g5
I19181276
sg24
(lp313
I85
aI101
asg36
V19181276
p314
sg61
Vphotojournalism
p315
sg63
VMikko Takkunen
p316
sasg65
(lp317
(dp318
g24
(lp319
I28
aI41
asg45
VUrbanfarming
p320
sasg20
(lp321
(dp322
g18
Vhttp://t.co/z1UKAFBu69
p323
sg24
(lp324
I62
aI84
asg26
Vhttp://bit.ly/1nepdUP
p325
sg28
Vbit.ly/1nepdUP
p326
sasVmedia
p327
(lp328
(dp329
Vsource_status_id_str
p330
V463331689444282369
p331
sg26
Vhttp://twitter.com/ChinaFile/status/463331689444282369/photo/1
p332
sg28
Vpic.twitter.com/JNA1qLaLun
p333
sg18
Vhttp://t.co/JNA1qLaLun
p334
sVmedia_url_https
p335
Vhttps://pbs.twimg.com/media/Bm4Vt2BCcAEGnc-.jpg
p336
sVsource_status_id
p337
I463331689444282369
sg36
V463331689003905025
p338
sVsizes
p339
(dp340
Vsmall
p341
(dp342
Vh
p343
I343
sVresize
p344
Vfit
p345
sVw
p346
I340
ssVlarge
p347
(dp348
g343
I1000
sg344
Vfit
p349
sg346
I992
ssVmedium
p350
(dp351
g343
I605
sg344
Vfit
p352
sg346
I600
ssVthumb
p353
(dp354
g343
I150
sg344
Vcrop
p355
sg346
I150
sssg24
(lp356
I102
aI124
asVtype
p357
Vphoto
p358
sg5
I463331689003905025
sVmedia_url
p359
Vhttp://pbs.twimg.com/media/Bm4Vt2BCcAEGnc-.jpg
p360
sassg68
Nsg36
V464060362233745408
p361
sg70
I12
sg71
Nsg72
I00
sg73
(dp362
g43
Nsg44
I00
sg45
VThis is what #Urbanfarming looks like in China-http://t.co/z1UKAFBu69 @photojournalism http://t.co/JNA1qLaLun
p363
sg47
Nsg5
I463331689444282369
sg48
I4
sg49
V<a href="https://about.twitter.com/products/tweetdeck" rel="nofollow">TweetDeck</a>
p364
sg51
I00
sg52
Nsg16
(dp365
g54
(lp366
sg56
(lp367
(dp368
g5
I19181276
sg24
(lp369
I70
aI86
asg36
V19181276
p370
sg61
Vphotojournalism
p371
sg63
VMikko Takkunen
p372
sasg65
(lp373
(dp374
g24
(lp375
I13
aI26
asg45
VUrbanfarming
p376
sasg20
(lp377
(dp378
g18
Vhttp://t.co/z1UKAFBu69
p379
sg24
(lp380
I47
aI69
asg26
Vhttp://bit.ly/1nepdUP
p381
sg28
Vbit.ly/1nepdUP
p382
sasg327
(lp383
(dp384
g26
Vhttp://twitter.com/ChinaFile/status/463331689444282369/photo/1
p385
sg28
Vpic.twitter.com/JNA1qLaLun
p386
sg18
Vhttp://t.co/JNA1qLaLun
p387
sg335
Vhttps://pbs.twimg.com/media/Bm4Vt2BCcAEGnc-.jpg
p388
sg36
V463331689003905025
p389
sg339
(dp390
g341
(dp391
g343
I343
sg344
Vfit
p392
sg346
I340
ssg347
(dp393
g343
I1000
sg344
Vfit
p394
sg346
I992
ssg350
(dp395
g343
I605
sg344
Vfit
p396
sg346
I600
ssg353
(dp397
g343
I150
sg344
Vcrop
p398
sg346
I150
sssg24
(lp399
I87
aI109
asg357
Vphoto
p400
sg5
I463331689003905025
sg359
Vhttp://pbs.twimg.com/media/Bm4Vt2BCcAEGnc-.jpg
p401
sassg68
Nsg36
V463331689444282369
p402
sg70
I12
sg71
Nsg72
I00
sg90
Nsg86
NsVpossibly_sensitive
p403
I00
sg75
Ven
p404
sg83
VMon May 05 14:57:37 +0000 2014
p405
sg85
Nsg89
Nssg90
Nsg86
Nsg403
I00
sg75
Ven
p406
sg83
VWed May 07 15:13:06 +0000 2014
p407
sg85
Nsg89
Nssg93
I00
sg94
Nsg95
I816
sg30
VAgricultural Engineer. Postharvest and Value Addition. Aspiring Farmer!
p408
sg97
I80
sg98
VNairobi,Kenya
p409
sg100
V93A644
p410
sg102
Vhttp://pbs.twimg.com/profile_images/2755111232/a3652bb83b1ea0ddc7f972224e44b1ff_normal.png
p411
sg104
Nsg105
I01
sg108
Vhttp://abs.twimg.com/images/themes/theme13/bg.gif
p412
sg61
VBrianApanja
p413
sg75
Ven
p414
sg112
I00
sg113
I49
sg63
VBrian Apanja
p415
sg115
Nsg18
Vhttp://t.co/cR43pXyjCj
p416
sg83
VThu Jul 14 09:31:56 +0000 2011
p417
sg118
I00
sg119
Nsg121
I00
sg122
I00
sg123
I00
sa(dp418
g2
Nsg3
I01
sg4
I00
sg5
I971522438
sg6
Vhttps://pbs.twimg.com/profile_background_images/721812624/d77a9836333b32c7f74838b70e7bbbe5.jpeg
p419
sg8
I00
sg9
V333333
p420
sg11
Nsg12
Vhttps://pbs.twimg.com/profile_images/2897604685/1f87be307b0438622dc9b670ea056d43_normal.jpeg
p421
sg14
VDDEEF6
p422
sg16
(dp423
g18
(dp424
g20
(lp425
(dp426
g18
Vhttp://t.co/WiaIHNENnw
p427
sg24
(lp428
I0
aI22
asg26
Vhttp://lakilaki.co.ke
p429
sg28
Vlakilaki.co.ke
p430
sassg30
(dp431
g20
(lp432
sssg33
I126
sg34
VFFFFFF
p433
sg36
V971522438
p434
sg38
VC0DEED
p435
sg40
I0
sg41
(dp436
g43
Nsg44
I00
sg45
VVery interesting feedback there "@PikaChakula: Easy to make Plain yogurt \u000aRecipe:http://t.co/tuaaHX3eSi http://t.co/s6JyjEzZkn"
p437
sg47
Nsg5
I474556467107094528
sg48
I0
sg49
V<a href="http://twitter.com/download/android" rel="nofollow">Twitter for Android</a>
p438
sg51
I00
sg52
Nsg16
(dp439
g54
(lp440
sg56
(lp441
(dp442
g5
I295851893
sg24
(lp443
I33
aI45
asg36
V295851893
p444
sg61
VPikaChakula
p445
sg63
VPika Chakula
p446
sasg65
(lp447
sg20
(lp448
(dp449
g18
Vhttp://t.co/tuaaHX3eSi
p450
sg24
(lp451
I81
aI103
asg26
Vhttp://goo.gl/BzYLho
p452
sg28
Vgoo.gl/BzYLho
p453
sa(dp454
g18
Vhttp://t.co/s6JyjEzZkn
p455
sg24
(lp456
I104
aI126
asg26
Vhttp://fb.me/6Qu7toCaQ
p457
sg28
Vfb.me/6Qu7toCaQ
p458
sassg68
Nsg36
V474556467107094528
p459
sg70
I0
sg71
Nsg72
I00
sg90
Nsg86
Nsg403
I00
sg75
Ven
p460
sg83
VThu Jun 05 14:20:53 +0000 2014
p461
sg85
Nsg89
Nssg93
I00
sg94
I10800
sg95
I360
sg30
VWe produce the delicious Laki Laki yoghurt drink and supply to exclusive hotels & lodges. We buy all our milk from an orphanage in Thika. #sustainability #CSR
p462
sg97
I83
sg98
VThika, Nairobi, Kenya
p463
sg100
VB30083
p464
sg102
Vhttp://pbs.twimg.com/profile_images/2897604685/1f87be307b0438622dc9b670ea056d43_normal.jpeg
p465
sg104
Nsg105
I01
sg106
Vhttps://pbs.twimg.com/profile_banners/971522438/1387563333
p466
sg108
Vhttp://pbs.twimg.com/profile_background_images/721812624/d77a9836333b32c7f74838b70e7bbbe5.jpeg
p467
sg61
VLakilaki_ke
p468
sg75
Ven
p469
sg112
I00
sg113
I150
sg63
VLaki Laki
p470
sg115
Nsg18
Vhttp://t.co/WiaIHNENnw
p471
sg83
VMon Nov 26 07:45:19 +0000 2012
p472
sg118
I00
sg119
VNairobi
p473
sg121
I00
sg122
I00
sg123
I00
sa(dp474
g2
Nsg3
I01
sg4
I00
sg5
I516452364
sg6
Vhttps://pbs.twimg.com/profile_background_images/807619046/f1612bbaff4248c84e4ed8f876c3cd84.jpeg
p475
sg8
I00
sg9
V333333
p476
sg11
Nsg12
Vhttps://pbs.twimg.com/profile_images/445414125712068608/reGpZBav_normal.jpeg
p477
sg14
VDDEEF6
p478
sg16
(dp479
g30
(dp480
g20
(lp481
sssg33
I78
sg34
VFFFFFF
p482
sg36
V516452364
p483
sg38
VC0DEED
p484
sg40
I1
sg41
(dp485
g43
Nsg44
I00
sg45
VFarewell reception #ekn family Mebius, sad to see them leave #nairobi http://t.co/z5ECn9KlEa
p486
sg47
Nsg5
I475194069644099584
sg48
I0
sg49
V<a href="http://twitter.com/download/iphone" rel="nofollow">Twitter for iPhone</a>
p487
sg51
I00
sg52
Nsg16
(dp488
g54
(lp489
sg56
(lp490
sg65
(lp491
(dp492
g24
(lp493
I19
aI23
asg45
Vekn
p494
sa(dp495
g24
(lp496
I61
aI69
asg45
Vnairobi
p497
sasg20
(lp498
sg327
(lp499
(dp500
g26
Vhttp://twitter.com/ronplaya/status/475194069644099584/photo/1
p501
sg28
Vpic.twitter.com/z5ECn9KlEa
p502
sg18
Vhttp://t.co/z5ECn9KlEa
p503
sg335
Vhttps://pbs.twimg.com/media/Bpg6fFcCMAAsV06.jpg
p504
sg36
V475194066397704192
p505
sg339
(dp506
g347
(dp507
g343
I764
sg344
Vfit
p508
sg346
I1024
ssg341
(dp509
g343
I253
sg344
Vfit
p510
sg346
I340
ssg350
(dp511
g343
I447
sg344
Vfit
p512
sg346
I599
ssg353
(dp513
g343
I150
sg344
Vcrop
p514
sg346
I150
sssg24
(lp515
I70
aI92
asg357
Vphoto
p516
sg5
I475194066397704192
sg359
Vhttp://pbs.twimg.com/media/Bpg6fFcCMAAsV06.jpg
p517
sassg68
Nsg36
V475194069644099584
p518
sg70
I0
sg71
Nsg72
I00
sg90
Nsg86
Nsg403
I00
sg75
Ven
p519
sg83
VSat Jun 07 08:34:29 +0000 2014
p520
sg85
Nsg89
Nssg93
I00
sg94
I7200
sg95
I1136
sg30
Vcontroller diver soccer photography development
p521
sg97
I276
sg98
VNairobi
p522
sg100
V0084B4
p523
sg102
Vhttp://pbs.twimg.com/profile_images/445414125712068608/reGpZBav_normal.jpeg
p524
sg104
Nsg105
I01
sg106
Vhttps://pbs.twimg.com/profile_banners/516452364/1362562164
p525
sg108
Vhttp://pbs.twimg.com/profile_background_images/807619046/f1612bbaff4248c84e4ed8f876c3cd84.jpeg
p526
sg61
Vronplaya
p527
sg75
Ven
p528
sg112
I00
sg113
I16
sg63
Vdimitri serge
p529
sg115
Nsg18
Nsg83
VTue Mar 06 11:46:16 +0000 2012
p530
sg118
I00
sg119
VAmsterdam
p531
sg121
I00
sg122
I00
sg123
I00
sa(dp532
g2
Nsg3
I01
sg4
I00
sg5
I318253972
sg6
Vhttps://abs.twimg.com/images/themes/theme1/bg.png
p533
sg8
I00
sg9
V333333
p534
sg11
Nsg12
Vhttps://pbs.twimg.com/profile_images/378800000343898077/07cc3f5ab800ae7f47a8b6993e2d64b7_normal.jpeg
p535
sg14
VDDEEF6
p536
sg16
(dp537
g18
(dp538
g20
(lp539
(dp540
g18
Vhttp://t.co/b8dXJzDMfJ
p541
sg24
(lp542
I0
aI22
asg26
Vhttp://www.kenia.nlembassy.org
p543
sg28
Vkenia.nlembassy.org
p544
sassg30
(dp545
g20
(lp546
sssg33
I2052
sg34
VC0DEED
p547
sg36
V318253972
p548
sg38
VC0DEED
p549
sg40
I33
sg41
(dp550
g43
Nsg44
I00
sg45
VRT @mdeblois: Thanks @alykhansatchu for very informative evening. And thanks to @JoostReintjes for hosting once again @upande http://t.co/c\u2026
p551
sg47
Nsg5
I475329641553883136
sg48
I0
sg49
V<a href="http://twitter.com/#!/download/ipad" rel="nofollow">Twitter for iPad</a>
p552
sg51
I00
sg52
Nsg16
(dp553
g54
(lp554
sg56
(lp555
(dp556
g5
I24137746
sg24
(lp557
I3
aI12
asg36
V24137746
p558
sg61
Vmdeblois
p559
sg63
VMark de Blois
p560
sa(dp561
g5
I21303464
sg24
(lp562
I21
aI35
asg36
V21303464
p563
sg61
Valykhansatchu
p564
sg63
VAly-Khan Satchu
p565
sa(dp566
g5
I318253972
sg24
(lp567
I80
aI94
asg36
V318253972
p568
sg61
VJoostReintjes
p569
sg63
VNL ambassador Kenya
p570
sa(dp571
g5
I177867374
sg24
(lp572
I118
aI125
asg36
V177867374
p573
sg61
VUpande
p574
sg63
VUpande
p575
sasg65
(lp576
sg20
(lp577
sg327
(lp578
(dp579
g330
V475321432516624384
p580
sg26
Vhttp://twitter.com/mdeblois/status/475321432516624384/photo/1
p581
sg28
Vpic.twitter.com/coA6wu5Ikm
p582
sg18
Vhttp://t.co/coA6wu5Ikm
p583
sg335
Vhttps://pbs.twimg.com/media/BpiuUZmCYAAHykS.jpg
p584
sg337
I475321432516624384
sg36
V475321426178629632
p585
sg339
(dp586
g347
(dp587
g343
I768
sg344
Vfit
p588
sg346
I1024
ssg341
(dp589
g343
I255
sg344
Vfit
p590
sg346
I340
ssg350
(dp591
g343
I450
sg344
Vfit
p592
sg346
I600
ssg353
(dp593
g343
I150
sg344
Vcrop
p594
sg346
I150
sssg24
(lp595
I126
aI140
asg357
Vphoto
p596
sg5
I475321426178629632
sg359
Vhttp://pbs.twimg.com/media/BpiuUZmCYAAHykS.jpg
p597
sassg68
Nsg36
V475329641553883136
p598
sg70
I3
sg71
Nsg72
I00
sg73
(dp599
g43
Nsg44
I00
sg45
VThanks @alykhansatchu for very informative evening. And thanks to @JoostReintjes for hosting once again @upande http://t.co/coA6wu5Ikm
p600
sg47
Nsg5
I475321432516624384
sg48
I0
sg49
V<a href="http://twitter.com/download/android" rel="nofollow">Twitter for Android</a>
p601
sg51
I00
sg52
Nsg16
(dp602
g54
(lp603
sg56
(lp604
(dp605
g5
I21303464
sg24
(lp606
I7
aI21
asg36
V21303464
p607
sg61
Valykhansatchu
p608
sg63
VAly-Khan Satchu
p609
sa(dp610
g5
I318253972
sg24
(lp611
I66
aI80
asg36
V318253972
p612
sg61
VJoostReintjes
p613
sg63
VNL ambassador Kenya
p614
sa(dp615
g5
I177867374
sg24
(lp616
I104
aI111
asg36
V177867374
p617
sg61
VUpande
p618
sg63
VUpande
p619
sasg65
(lp620
sg20
(lp621
sg327
(lp622
(dp623
g26
Vhttp://twitter.com/mdeblois/status/475321432516624384/photo/1
p624
sg28
Vpic.twitter.com/coA6wu5Ikm
p625
sg18
Vhttp://t.co/coA6wu5Ikm
p626
sg335
Vhttps://pbs.twimg.com/media/BpiuUZmCYAAHykS.jpg
p627
sg36
V475321426178629632
p628
sg339
(dp629
g347
(dp630
g343
I768
sg344
Vfit
p631
sg346
I1024
ssg341
(dp632
g343
I255
sg344
Vfit
p633
sg346
I340
ssg350
(dp634
g343
I450
sg344
Vfit
p635
sg346
I600
ssg353
(dp636
g343
I150
sg344
Vcrop
p637
sg346
I150
sssg24
(lp638
I112
aI134
asg357
Vphoto
p639
sg5
I475321426178629632
sg359
Vhttp://pbs.twimg.com/media/BpiuUZmCYAAHykS.jpg
p640
sassg68
Nsg36
V475321432516624384
p641
sg70
I3
sg71
Nsg72
I00
sg90
Nsg86
Nsg403
I00
sg75
Ven
p642
sg83
VSat Jun 07 17:00:35 +0000 2014
p643
sg85
Nsg89
Nssg90
Nsg86
Nsg403
I00
sg75
Ven
p644
sg83
VSat Jun 07 17:33:12 +0000 2014
p645
sg85
Nsg89
Nssg93
I00
sg94
I10800
sg95
I764
sg30
VNetherlands ambassador to Kenya, Somalia and Seychelles. Living in Nairobi since August 2011.
p646
sg97
I422
sg98
VNairobi
p647
sg100
V0084B4
p648
sg102
Vhttp://pbs.twimg.com/profile_images/378800000343898077/07cc3f5ab800ae7f47a8b6993e2d64b7_normal.jpeg
p649
sg104
Nsg105
I01
sg106
Vhttps://pbs.twimg.com/profile_banners/318253972/1382553292
p650
sg108
Vhttp://abs.twimg.com/images/themes/theme1/bg.png
p651
sg61
VJoostReintjes
p652
sg75
Ven
p653
sg112
I00
sg113
I6
sg63
VNL ambassador Kenya
p654
sg115
Nsg18
Vhttp://t.co/b8dXJzDMfJ
p655
sg83
VThu Jun 16 05:52:21 +0000 2011
p656
sg118
I00
sg119
VNairobi
p657
sg121
I00
sg122
I01
sg123
I00
sa(dp658
Vfollow_request_sent
p659
NsVprofile_use_background_image
p660
I01
sVdefault_profile_image
p661
I00
sVid
p662
I56667707
sVprofile_background_image_url_https
p663
Vhttps://pbs.twimg.com/profile_background_images/443638275601743872/giohKrAE.jpeg
p664
sVverified
p665
I00
sVprofile_text_color
p666
VFFFFFF
p667
sVmuting
p668
NsVprofile_image_url_https
p669
Vhttps://pbs.twimg.com/profile_images/471905686289252354/rQR80uAE_normal.jpeg
p670
sVprofile_sidebar_fill_color
p671
V000000
p672
sVentities
p673
(dp674
Vurl
p675
(dp676
Vurls
p677
(lp678
(dp679
g675
Vhttp://t.co/Qrx9umJgd7
p680
sVindices
p681
(lp682
I0
aI22
asVexpanded_url
p683
Vhttp://www.kenyabuzz.com
p684
sVdisplay_url
p685
Vkenyabuzz.com
p686
sassVdescription
p687
(dp688
g677
(lp689
sssVfollowers_count
p690
I4294
sVprofile_sidebar_border_color
p691
VFFFFFF
p692
sVid_str
p693
V56667707
p694
sVprofile_background_color
p695
V131516
p696
sVlisted_count
p697
I38
sVstatus
p698
(dp699
Vcontributors
p700
NsVtruncated
p701
I00
sVtext
p702
VIf your looking for service apartments Heri Heights has got you covered. http://t.co/Qr8usIEaFs
p703
sVin_reply_to_status_id
p704
Nsg662
I475248360237305856
sVfavorite_count
p705
I0
sVsource
p706
V<a href="http://www.hootsuite.com" rel="nofollow">Hootsuite</a>
p707
sVretweeted
p708
I00
sVcoordinates
p709
Nsg673
(dp710
Vsymbols
p711
(lp712
sVuser_mentions
p713
(lp714
sVhashtags
p715
(lp716
sg677
(lp717
(dp718
g675
Vhttp://t.co/Qr8usIEaFs
p719
sg681
(lp720
I73
aI95
asg683
Vhttp://ow.ly/i/5PnAm
p721
sg685
Vow.ly/i/5PnAm
p722
sassVin_reply_to_screen_name
p723
Nsg693
V475248360237305856
p724
sVretweet_count
p725
I0
sVin_reply_to_user_id
p726
NsVfavorited
p727
I00
sVgeo
p728
NsVin_reply_to_user_id_str
p729
NsVpossibly_sensitive
p730
I00
sVlang
p731
Ven
p732
sVcreated_at
p733
VSat Jun 07 12:10:13 +0000 2014
p734
sVin_reply_to_status_id_str
p735
NsVplace
p736
NssVis_translation_enabled
p737
I00
sVutc_offset
p738
I10800
sVstatuses_count
p739
I8846
sg687
VOut of the loop? Visit us for what\u2019s on in sports, music, nightlife, art, theatre, movies, fun fun fun and more fun in Kenya.
p740
sVfriends_count
p741
I2704
sVlocation
p742
VNairobi
p743
sVprofile_link_color
p744
V009999
p745
sVprofile_image_url
p746
Vhttp://pbs.twimg.com/profile_images/471905686289252354/rQR80uAE_normal.jpeg
p747
sVfollowing
p748
NsVgeo_enabled
p749
I01
sVprofile_banner_url
p750
Vhttps://pbs.twimg.com/profile_banners/56667707/1401942066
p751
sVprofile_background_image_url
p752
Vhttp://pbs.twimg.com/profile_background_images/443638275601743872/giohKrAE.jpeg
p753
sVscreen_name
p754
VKenyaBuzz
p755
sg731
Ven
p756
sVprofile_background_tile
p757
I01
sVfavourites_count
p758
I62
sVname
p759
VKenyaBuzz
p760
sVnotifications
p761
Nsg675
Vhttp://t.co/Qrx9umJgd7
p762
sg733
VTue Jul 14 11:15:41 +0000 2009
p763
sVcontributors_enabled
p764
I00
sVtime_zone
p765
VNairobi
p766
sVprotected
p767
I00
sVdefault_profile
p768
I00
sVis_translator
p769
I00
sa(dp770
g659
Nsg660
I01
sg661
I00
sg662
I40817239
sg663
Vhttps://pbs.twimg.com/profile_background_images/262789208/Light-Graffiti-Michael-Bo-003.jpg
p771
sg665
I00
sg666
VCDB380
p772
sg668
Nsg669
Vhttps://pbs.twimg.com/profile_images/3482074258/a12b2ed691dcf42b6b8d551cda032471_normal.jpeg
p773
sg671
V033649
p774
sg673
(dp775
g687
(dp776
g677
(lp777
sssg690
I109
sg691
V031634
p778
sg693
V40817239
p779
sg695
VE8DDCB
p780
sg697
I1
sg698
(dp781
g700
Nsg701
I00
sg702
VRT @EdwinBaru: Havent these guys been in every govt except this one?
p782
sg704
Nsg662
I472734116212133888
sg705
I0
sg706
V<a href="https://mobile.twitter.com" rel="nofollow">Mobile Web (M2)</a>
p783
sg708
I00
sg709
Nsg673
(dp784
g711
(lp785
sg713
(lp786
(dp787
g662
I29212953
sg681
(lp788
I3
aI13
asg693
V29212953
p789
sg754
VEdwinBaru
p790
sg759
VEdwin Baru
p791
sasg715
(lp792
sg677
(lp793
ssg723
Nsg693
V472734116212133888
p794
sg725
I3
sg726
Nsg727
I00
sVretweeted_status
p795
(dp796
g731
Ven
p797
sg727
I00
sg673
(dp798
g711
(lp799
sg713
(lp800
sg715
(lp801
sg677
(lp802
ssg700
Nsg701
I00
sg702
VHavent these guys been in every govt except this one?
p803
sg733
VSat May 31 13:30:37 +0000 2014
p804
sg708
I00
sg735
Nsg709
Nsg729
Nsg706
V<a href="http://seesmic.com/" rel="nofollow">Seesmic</a>
p805
sg704
Nsg723
Nsg693
V472731879314300928
p806
sg736
Nsg725
I3
sg728
Nsg662
I472731879314300928
sg705
I0
sg726
Nssg728
Nsg729
Nsg731
Ven
p807
sg733
VSat May 31 13:39:30 +0000 2014
p808
sg735
Nsg736
Nssg737
I00
sg738
I10800
sg739
I394
sg687
VA slam dunk of awesomeness..any competition at best, is a free throw.\u000a\u000aCut from a different textile.\u000a\u000aTooter of my own horn.\u000a\u000aEpitome of a free spirit
p809
sg741
I193
sg742
VNairobi/Nanyuki
p810
sg744
V036564
p811
sg746
Vhttp://pbs.twimg.com/profile_images/3482074258/a12b2ed691dcf42b6b8d551cda032471_normal.jpeg
p812
sg748
Nsg749
I01
sg750
Vhttps://pbs.twimg.com/profile_banners/40817239/1374159942
p813
sg752
Vhttp://pbs.twimg.com/profile_background_images/262789208/Light-Graffiti-Michael-Bo-003.jpg
p814
sg754
ViMartination
p815
sg731
Ven
p816
sg757
I01
sg758
I6
sg759
VSwank Sinatra
p817
sg761
Nsg675
Nsg733
VMon May 18 04:58:55 +0000 2009
p818
sg764
I00
sg765
VNairobi
p819
sg767
I00
sg768
I00
sg769
I00
sa(dp820
g659
Nsg660
I01
sg661
I00
sg662
I65242320
sg663
Vhttps://pbs.twimg.com/profile_background_images/252963771/Twitter_Background-1_copy.jpg
p821
sg665
I00
sg666
V333333
p822
sg668
Nsg669
Vhttps://pbs.twimg.com/profile_images/1096044411/Kenya-Unity_normal.jpg
p823
sg671
VF4F7C6
p824
sg673
(dp825
g675
(dp826
g677
(lp827
(dp828
g675
Vhttp://t.co/f7A2UjbvFA
p829
sg681
(lp830
I0
aI22
asg683
Vhttp://www.tribe-hotel.com
p831
sg685
Vtribe-hotel.com
p832
sassg687
(dp833
g677
(lp834
sssg690
I6211
sg691
VA89432
p835
sg693
V65242320
p836
sg695
V000000
p837
sg697
I100
sg698
(dp838
g731
Ven
p839
sg727
I00
sg673
(dp840
g711
(lp841
sg713
(lp842
sg715
(lp843
sg677
(lp844
ssg700
Nsg701
I00
sg702
V"People with goals succeed because they know where they are going. Its as simple as that". -Earl Nightingale
p845
sg733
VFri Jun 06 14:02:38 +0000 2014
p846
sg708
I00
sg735
Nsg709
Nsg729
Nsg706
V<a href="http://www.hootsuite.com" rel="nofollow">Hootsuite</a>
p847
sg704
Nsg723
Nsg693
V474914263174496256
p848
sg736
Nsg725
I0
sg728
Nsg662
I474914263174496256
sg705
I0
sg726
Nssg737
I00
sg738
I10800
sg739
I3981
sg687
VTribe was conceived from one simple belief. We coexist on a single planet and there is only one tribe that matters - Humankind. \u000aONE PLANET ONE TRIBE
p849
sg741
I5052
sg742
VNairobi, Kenya
p850
sg744
V0084B4
p851
sg746
Vhttp://pbs.twimg.com/profile_images/1096044411/Kenya-Unity_normal.jpg
p852
sg748
Nsg749
I01
sg750
Vhttps://pbs.twimg.com/profile_banners/65242320/1395125238
p853
sg752
Vhttp://pbs.twimg.com/profile_background_images/252963771/Twitter_Background-1_copy.jpg
p854
sg754
VTribeHotelKenya
p855
sg731
Ven
p856
sg757
I00
sg758
I90
sg759
VTribe Hotel Kenya 
p857
sg761
Nsg675
Vhttp://t.co/f7A2UjbvFA
p858
sg733
VThu Aug 13 02:15:08 +0000 2009
p859
sg764
I00
sg765
VNairobi
p860
sg767
I00
sg768
I00
sg769
I00
sa(dp861
g659
Nsg660
I01
sg661
I00
sg662
I595181838
sg663
Vhttps://abs.twimg.com/images/themes/theme1/bg.png
p862
sg665
I00
sg666
V333333
p863
sg668
Nsg669
Vhttps://pbs.twimg.com/profile_images/447418787491360769/wAF7_vK-_normal.jpeg
p864
sg671
VDDEEF6
p865
sg673
(dp866
g675
(dp867
g677
(lp868
(dp869
g675
Vhttp://t.co/CyDHJ4itzi
p870
sg681
(lp871
I0
aI22
asg683
Vhttp://www.ilri.org/ilrinews/
p872
sg685
Vilri.org/ilrinews/
p873
sassg687
(dp874
g677
(lp875
sssg690
I715
sg691
VC0DEED
p876
sg693
V595181838
p877
sg695
VC0DEED
p878
sg697
I40
sg698
(dp879
g700
Nsg701
I00
sg702
VRT @globalcompact: Find partners. Collaborate on projects. Support #UN goals \u2013 Join the #BusinessPartnershipHub: http://t.co/xLkohpnxi2 #cs\u2026
p880
sg704
Nsg662
I475361276043223040
sg705
I0
sg706
V<a href="http://twitter.com/download/iphone" rel="nofollow">Twitter for iPhone</a>
p881
sg708
I00
sg709
Nsg673
(dp882
g711
(lp883
sg713
(lp884
(dp885
g662
I38704343
sg681
(lp886
I3
aI17
asg693
V38704343
p887
sg754
Vglobalcompact
p888
sg759
VUN Global Compact
p889
sasg715
(lp890
(dp891
g681
(lp892
I67
aI70
asg702
VUN
p893
sa(dp894
g681
(lp895
I88
aI111
asg702
VBusinessPartnershipHub
p896
sa(dp897
g681
(lp898
I136
aI140
asg702
Vcsr
p899
sa(dp900
g681
(lp901
I139
aI140
asg702
Vsustdev
p902
sa(dp903
g681
(lp904
I139
aI140
asg702
VGCAfrica
p905
sasg677
(lp906
(dp907
g675
Vhttp://t.co/xLkohpnxi2
p908
sg681
(lp909
I113
aI135
asg683
Vhttp://bit.ly/1ik8zLF
p910
sg685
Vbit.ly/1ik8zLF
p911
sassg723
Nsg693
V475361276043223040
p912
sg725
I5
sg726
Nsg727
I00
sg795
(dp913
g700
Nsg701
I00
sg702
VFind partners. Collaborate on projects. Support #UN goals \u2013 Join the #BusinessPartnershipHub: http://t.co/xLkohpnxi2 #csr #sustdev #GCAfrica
p914
sg704
Nsg662
I475352819638476801
sg705
I4
sg706
V<a href="http://www.hootsuite.com" rel="nofollow">Hootsuite</a>
p915
sg708
I00
sg709
Nsg673
(dp916
g711
(lp917
sg713
(lp918
sg715
(lp919
(dp920
g681
(lp921
I48
aI51
asg702
VUN
p922
sa(dp923
g681
(lp924
I69
aI92
asg702
VBusinessPartnershipHub
p925
sa(dp926
g681
(lp927
I117
aI121
asg702
Vcsr
p928
sa(dp929
g681
(lp930
I122
aI130
asg702
Vsustdev
p931
sa(dp932
g681
(lp933
I131
aI140
asg702
VGCAfrica
p934
sasg677
(lp935
(dp936
g675
Vhttp://t.co/xLkohpnxi2
p937
sg681
(lp938
I94
aI116
asg683
Vhttp://bit.ly/1ik8zLF
p939
sg685
Vbit.ly/1ik8zLF
p940
sassg723
Nsg693
V475352819638476801
p941
sg725
I5
sg726
Nsg727
I00
sg728
Nsg729
Nsg730
I00
sg731
Ven
p942
sg733
VSat Jun 07 19:05:18 +0000 2014
p943
sg735
Nsg736
Nssg728
Nsg729
Nsg730
I00
sg731
Ven
p944
sg733
VSat Jun 07 19:38:54 +0000 2014
p945
sg735
Nsg736
Nssg737
I00
sg738
I-36000
sg739
I4405
sg687
VGlobal Capacity Development Specialist @CGIAR @ILRI. Formerly @UNDP @UNDPasiapac @SNVworld @ING_news. Tweets are mine. #SustainableDevelopment #Partnerships
p946
sg741
I1464
sg742
VKenya, Nairobi
p947
sg744
V0084B4
p948
sg746
Vhttp://pbs.twimg.com/profile_images/447418787491360769/wAF7_vK-_normal.jpeg
p949
sg748
Nsg749
I01
sg750
Vhttps://pbs.twimg.com/profile_banners/595181838/1386357814
p950
sg752
Vhttp://abs.twimg.com/images/themes/theme1/bg.png
p951
sg754
VDianaBrandes
p952
sg731
Ven
p953
sg757
I00
sg758
I229
sg759
VDiana Brandes
p954
sg761
Nsg675
Vhttp://t.co/CyDHJ4itzi
p955
sg733
VThu May 31 02:29:01 +0000 2012
p956
sg764
I00
sg765
VHawaii
p957
sg767
I00
sg768
I01
sg769
I00
sa(dp958
g659
Nsg660
I01
sg661
I00
sg662
I36092298
sg663
Vhttps://abs.twimg.com/images/themes/theme9/bg.gif
p959
sg665
I00
sg666
V666666
p960
sg668
Nsg669
Vhttps://pbs.twimg.com/profile_images/455633337474748416/VZk6XV1w_normal.jpeg
p961
sg671
V252429
p962
sg673
(dp963
g687
(dp964
g677
(lp965
sssg690
I122
sg691
V181A1E
p966
sg693
V36092298
p967
sg695
V1A1B1F
p968
sg697
I2
sg698
(dp969
g731
Ven
p970
sg727
I00
sg673
(dp971
g711
(lp972
sg713
(lp973
sg715
(lp974
(dp975
g681
(lp976
I37
aI43
asg702
Vthika
p977
sa(dp978
g681
(lp979
I49
aI57
asg702
Vtujuane
p980
sasg677
(lp981
ssg700
Nsg701
I00
sg702
Vdid this dyke just diss my home town #thika #237 #tujuane
p982
sg733
VMon May 26 17:08:50 +0000 2014
p983
sg708
I00
sg735
Nsg709
Nsg729
Nsg706
V<a href="https://mobile.twitter.com" rel="nofollow">Mobile Web (M2)</a>
p984
sg704
Nsg723
Nsg693
V470974853693321216
p985
sg736
Nsg725
I0
sg728
Nsg662
I470974853693321216
sg705
I0
sg726
Nssg737
I00
sg738
I14400
sg739
I592
sg687
V
p986
sg741
I150
sg742
VNAIROBI
p987
sg744
V2FC2EF
p988
sg746
Vhttp://pbs.twimg.com/profile_images/455633337474748416/VZk6XV1w_normal.jpeg
p989
sg748
Nsg749
I01
sg750
Vhttps://pbs.twimg.com/profile_banners/36092298/1397465706
p990
sg752
Vhttp://abs.twimg.com/images/themes/theme9/bg.gif
p991
sg754
Vkenn_andy
p992
sg731
Ven
p993
sg757
I00
sg758
I9
sg759
VKennedy Andika
p994
sg761
Nsg675
Nsg733
VTue Apr 28 15:24:31 +0000 2009
p995
sg764
I00
sg765
VAbu Dhabi
p996
sg767
I00
sg768
I00
sg769
I00
sa(dp997
g659
Nsg660
I01
sg661
I00
sg662
I16128465
sg663
Vhttps://pbs.twimg.com/profile_background_images/3244735/IMG_0027.JPG
p998
sg665
I00
sg666
V333333
p999
sg668
Nsg669
Vhttps://pbs.twimg.com/profile_images/1196462129/Foto_van_Luuk_in_Stockholm_normal.jpg
p1000
sg671
VDDFFCC
p1001
sg673
(dp1002
g675
(dp1003
g677
(lp1004
(dp1005
g675
Vhttp://t.co/K0r6h6E9cD
p1006
sg681
(lp1007
I0
aI22
asg683
Vhttp://www.akvo.org
p1008
sg685
Vakvo.org
p1009
sassg687
(dp1010
g677
(lp1011
sssg690
I572
sg691
VBDDCAD
p1012
sg693
V16128465
p1013
sg695
V9AE4E8
p1014
sg697
I24
sg698
(dp1015
g731
Ven
p1016
sg727
I00
sg673
(dp1017
g711
(lp1018
sg713
(lp1019
sg715
(lp1020
(dp1021
g681
(lp1022
I30
aI39
asg702
Vdisaster
p1023
sasg677
(lp1024
ssg700
Nsg701
I00
sg702
VSome rain + Nairobi traffic = #disaster
p1025
sg733
VFri Jun 06 15:19:03 +0000 2014
p1026
sg708
I00
sg735
Nsg709
Nsg729
Nsg706
V<a href="http://twitter.com/download/android" rel="nofollow">Twitter for Android</a>
p1027
sg704
Nsg723
Nsg693
V474933493353697280
p1028
sg736
Nsg725
I0
sg728
Nsg662
I474933493353697280
sg705
I0
sg726
Nssg737
I00
sg738
I10800
sg739
I7060
sg687
g986
sg741
I352
sg742
VNairobi, Kenya
p1029
sg744
V0084B4
p1030
sg746
Vhttp://pbs.twimg.com/profile_images/1196462129/Foto_van_Luuk_in_Stockholm_normal.jpg
p1031
sg748
Nsg749
I01
sg752
Vhttp://pbs.twimg.com/profile_background_images/3244735/IMG_0027.JPG
p1032
sg754
Vluukdiphoorn
p1033
sg731
Ven
p1034
sg757
I00
sg758
I175
sg759
Vluukdiphoorn
p1035
sg761
Nsg675
Vhttp://t.co/K0r6h6E9cD
p1036
sg733
VThu Sep 04 13:03:53 +0000 2008
p1037
sg764
I00
sg765
VNairobi
p1038
sg767
I00
sg768
I00
sg769
I00
sa(dp1039
g659
Nsg660
I01
sg661
I00
sg662
I457907804
sg663
Vhttps://abs.twimg.com/images/themes/theme1/bg.png
p1040
sg665
I00
sg666
V333333
p1041
sg668
Nsg669
Vhttps://pbs.twimg.com/profile_images/1746532540/image_normal.jpg
p1042
sg671
VDDEEF6
p1043
sg673
(dp1044
g675
(dp1045
g677
(lp1046
(dp1047
g675
Vhttp://t.co/TTutKrtIGa
p1048
sg681
(lp1049
I0
aI22
asg683
Vhttp://www.agriterra.org
p1050
sg685
Vagriterra.org
p1051
sassg687
(dp1052
g677
(lp1053
sssg690
I269
sg691
VC0DEED
p1054
sg693
V457907804
p1055
sg695
VC0DEED
p1056
sg697
I0
sg698
(dp1057
g731
Ven
p1058
sg727
I00
sg673
(dp1059
g711
(lp1060
sg713
(lp1061
(dp1062
g662
I783214
sg681
(lp1063
I40
aI48
asg693
V783214
p1064
sg754
Vtwitter
p1065
sg759
VTwitter
p1066
sa(dp1067
g662
I269367347
sg681
(lp1068
I50
aI62
asg693
V269367347
p1069
sg754
Vspreadmktng
p1070
sg759
VSPREAD MARKETING
p1071
sa(dp1072
g662
I154502574
sg681
(lp1073
I112
aI122
asg693
V154502574
p1074
sg754
VAgriterra
p1075
sg759
VAgriterra
p1076
sasg715
(lp1077
(dp1078
g681
(lp1079
I97
aI111
asg702
Vagrimarketing
p1080
sasg677
(lp1081
ssg700
Nsg701
I00
sg702
VDid anybody see my new starting picture @Twitter? @spreadmktng: recognize the brand, or not yet? #agrimarketing @Agriterra
p1082
sg733
VFri Jun 06 17:29:41 +0000 2014
p1083
sg708
I00
sg735
Nsg709
(dp1084
Vtype
p1085
VPoint
p1086
sg709
(lp1087
F36.77646748
aF-1.25965193
assg729
Nsg706
V<a href="http://twitter.com/#!/download/ipad" rel="nofollow">Twitter for iPad</a>
p1088
sg704
Nsg723
Nsg693
V474966368245522432
p1089
sg736
(dp1090
Vfull_name
p1091
VKenya
p1092
sg675
Vhttps://api.twitter.com/1.1/geo/id/17ad6a68301cd28b.json
p1093
sVcountry
p1094
VKenya
p1095
sVplace_type
p1096
Vcountry
p1097
sVbounding_box
p1098
(dp1099
g1085
VPolygon
p1100
sg709
(lp1101
(lp1102
(lp1103
F33.8904683840002
aF-4.67750416499992
aa(lp1104
F41.8850191650002
aF-4.67750416499992
aa(lp1105
F41.8850191650002
aF5.03037582260771
aa(lp1106
F33.8904683840002
aF5.03037582260771
aaassVcontained_within
p1107
(lp1108
sVcountry_code
p1109
VKE
p1110
sVattributes
p1111
(dp1112
sg662
V17ad6a68301cd28b
p1113
sg759
VKenya
p1114
ssg725
I0
sg728
(dp1115
g1085
VPoint
p1116
sg709
(lp1117
F-1.25965193
aF36.77646748
assg662
I474966368245522432
sg705
I0
sg726
Nssg737
I00
sg738
Nsg739
I2070
sg687
Vagribusiness advisor to make cooperatives grow
p1118
sg741
I208
sg742
Vnairobi, kenya for east africa
p1119
sg744
V0084B4
p1120
sg746
Vhttp://pbs.twimg.com/profile_images/1746532540/image_normal.jpg
p1121
sg748
Nsg749
I01
sg750
Vhttps://pbs.twimg.com/profile_banners/457907804/1401390789
p1122
sg752
Vhttp://abs.twimg.com/images/themes/theme1/bg.png
p1123
sg754
VRienGeuze
p1124
sg731
Vnl
p1125
sg757
I00
sg758
I305
sg759
Vrien geuze
p1126
sg761
Nsg675
Vhttp://t.co/TTutKrtIGa
p1127
sg733
VSat Jan 07 23:39:48 +0000 2012
p1128
sg764
I00
sg765
Nsg767
I00
sg768
I01
sg769
I00
sa(dp1129
g659
Nsg660
I01
sg661
I00
sg662
I373317871
sg663
Vhttps://pbs.twimg.com/profile_background_images/685323571/4374ce2d782027d3eefc12d8d41b4cca.jpeg
p1130
sg665
I00
sg666
V427DCF
p1131
sg668
Nsg669
Vhttps://pbs.twimg.com/profile_images/1542368647/COLOR_wtxt_wo_background_normal.jpg
p1132
sg671
V5C8CCF
p1133
sg673
(dp1134
g675
(dp1135
g677
(lp1136
(dp1137
g675
Vhttp://t.co/FkBIyPuqcf
p1138
sg681
(lp1139
I0
aI22
asg683
Vhttp://www.isk.ac.ke
p1140
sg685
Visk.ac.ke
p1141
sassg687
(dp1142
g677
(lp1143
sssg690
I160
sg691
VFFFFFF
p1144
sg693
V373317871
p1145
sg695
V0055CC
p1146
sg697
I1
sg698
(dp1147
g700
Nsg701
I00
sg702
V#BringBackOurGirls http://t.co/LSpeQOadTJ
p1148
sg704
Nsg662
I464028553516818432
sg705
I0
sg706
V<a href="http://twitter.com" rel="nofollow">Twitter Web Client</a>
p1149
sg708
I00
sg709
Nsg673
(dp1150
g711
(lp1151
sg713
(lp1152
sg715
(lp1153
(dp1154
g681
(lp1155
I0
aI18
asg702
VBringBackOurGirls
p1156
sasg677
(lp1157
sVmedia
p1158
(lp1159
(dp1160
g683
Vhttp://twitter.com/ISKnews/status/464028553516818432/photo/1
p1161
sg685
Vpic.twitter.com/LSpeQOadTJ
p1162
sg675
Vhttp://t.co/LSpeQOadTJ
p1163
sVmedia_url_https
p1164
Vhttps://pbs.twimg.com/media/BnCPgkyIgAAQT_l.png
p1165
sg693
V464028551411695616
p1166
sVsizes
p1167
(dp1168
Vlarge
p1169
(dp1170
g343
I537
sVresize
p1171
Vfit
p1172
sg346
I537
ssVsmall
p1173
(dp1174
g343
I340
sg1171
Vfit
p1175
sg346
I340
ssVmedium
p1176
(dp1177
g343
I537
sg1171
Vfit
p1178
sg346
I537
ssVthumb
p1179
(dp1180
g343
I150
sg1171
Vcrop
p1181
sg346
I150
sssg681
(lp1182
I19
aI41
asg1085
Vphoto
p1183
sg662
I464028551411695616
sVmedia_url
p1184
Vhttp://pbs.twimg.com/media/BnCPgkyIgAAQT_l.png
p1185
sassg723
Nsg693
V464028553516818432
p1186
sg725
I0
sg726
Nsg727
I00
sg728
Nsg729
Nsg730
I00
sg731
Ven
p1187
sg733
VWed May 07 13:06:43 +0000 2014
p1188
sg735
Nsg736
Nssg737
I00
sg738
I10800
sg739
I68
sg687
VEmpowering students to create solutions for tomorrow's challenges
p1189
sg741
I69
sg742
VNairobi, Kenya
p1190
sg744
V246CD0
p1191
sg746
Vhttp://pbs.twimg.com/profile_images/1542368647/COLOR_wtxt_wo_background_normal.jpg
p1192
sg748
Nsg749
I01
sg750
Vhttps://pbs.twimg.com/profile_banners/373317871/1362573883
p1193
sg752
Vhttp://pbs.twimg.com/profile_background_images/685323571/4374ce2d782027d3eefc12d8d41b4cca.jpeg
p1194
sg754
VISKnews
p1195
sg731
Ven
p1196
sg757
I00
sg758
I0
sg759
VIntl School of Kenya
p1197
sg761
Nsg675
Vhttp://t.co/FkBIyPuqcf
p1198
sg733
VWed Sep 14 11:15:36 +0000 2011
p1199
sg764
I00
sg765
VNairobi
p1200
sg767
I00
sg768
I00
sg769
I00
sa(dp1201
Vfollow_request_sent
p1202
NsVprofile_use_background_image
p1203
I01
sVdefault_profile_image
p1204
I00
sVid
p1205
I223216850
sVprofile_background_image_url_https
p1206
Vhttps://abs.twimg.com/images/themes/theme1/bg.png
p1207
sVverified
p1208
I00
sVprofile_text_color
p1209
V333333
p1210
sVmuting
p1211
NsVprofile_image_url_https
p1212
Vhttps://pbs.twimg.com/profile_images/1183343352/InReturn_-_R_logo_normal.png
p1213
sVprofile_sidebar_fill_color
p1214
VDDEEF6
p1215
sVentities
p1216
(dp1217
Vurl
p1218
(dp1219
Vurls
p1220
(lp1221
(dp1222
g1218
Vhttp://t.co/cEWHwdtafI
p1223
sVindices
p1224
(lp1225
I0
aI22
asVexpanded_url
p1226
Vhttp://www.InReturnCapital.com
p1227
sVdisplay_url
p1228
VInReturnCapital.com
p1229
sassVdescription
p1230
(dp1231
g1220
(lp1232
sssVfollowers_count
p1233
I782
sVprofile_sidebar_border_color
p1234
VC0DEED
p1235
sVid_str
p1236
V223216850
p1237
sVprofile_background_color
p1238
VC0DEED
p1239
sVlisted_count
p1240
I48
sVstatus
p1241
(dp1242
Vlang
p1243
Ven
p1244
sVfavorited
p1245
I00
sg1216
(dp1246
Vsymbols
p1247
(lp1248
sVuser_mentions
p1249
(lp1250
(dp1251
g1205
I543328565
sg1224
(lp1252
I58
aI73
asg1236
V543328565
p1253
sVscreen_name
p1254
Vjacanapartners
p1255
sVname
p1256
VJacana Partners
p1257
sasVhashtags
p1258
(lp1259
sg1220
(lp1260
ssVcontributors
p1261
NsVtruncated
p1262
I00
sVtext
p1263
VInReturn Capital has rebranded to Jacana Partners. Follow @jacanapartners for more info &amp; to stay up to date with our latest news.
p1264
sVcreated_at
p1265
VFri Feb 01 14:52:28 +0000 2013
p1266
sVretweeted
p1267
I00
sVin_reply_to_status_id_str
p1268
NsVcoordinates
p1269
NsVin_reply_to_user_id_str
p1270
NsVsource
p1271
V<a href="http://twitter.com/download/iphone" rel="nofollow">Twitter for iPhone</a>
p1272
sVin_reply_to_status_id
p1273
NsVin_reply_to_screen_name
p1274
Nsg1236
V297356749105688577
p1275
sVplace
p1276
NsVretweet_count
p1277
I0
sVgeo
p1278
Nsg1205
I297356749105688577
sVfavorite_count
p1279
I0
sVin_reply_to_user_id
p1280
NssVis_translation_enabled
p1281
I00
sVutc_offset
p1282
I10800
sVstatuses_count
p1283
I122
sg1230
VInReturn Capital has merged with pan-African private equity firm Jacana Partners. Follow @jacanapartners for our latest news.
p1284
sVfriends_count
p1285
I451
sVlocation
p1286
VNairobi, Dar es Salaam, London
p1287
sVprofile_link_color
p1288
V0084B4
p1289
sVprofile_image_url
p1290
Vhttp://pbs.twimg.com/profile_images/1183343352/InReturn_-_R_logo_normal.png
p1291
sVfollowing
p1292
NsVgeo_enabled
p1293
I01
sVprofile_background_image_url
p1294
Vhttp://abs.twimg.com/images/themes/theme1/bg.png
p1295
sg1254
VInReturnCapital
p1296
sg1243
Ven
p1297
sVprofile_background_tile
p1298
I00
sVfavourites_count
p1299
I0
sg1256
VInReturn Capital
p1300
sVnotifications
p1301
Nsg1218
Vhttp://t.co/cEWHwdtafI
p1302
sg1265
VSun Dec 05 19:00:48 +0000 2010
p1303
sVcontributors_enabled
p1304
I00
sVtime_zone
p1305
VNairobi
p1306
sVprotected
p1307
I00
sVdefault_profile
p1308
I01
sVis_translator
p1309
I00
sa(dp1310
g1202
Nsg1203
I01
sg1204
I00
sg1205
I27833927
sg1206
Vhttps://pbs.twimg.com/profile_background_images/839060409/7dab67b75a2a8615e47476ef8dc5a8eb.jpeg
p1311
sg1208
I00
sg1209
V6E6E6E
p1312
sg1211
Nsg1212
Vhttps://pbs.twimg.com/profile_images/3363158152/ddf9bfa855617a68fad5cb67d8c94643_normal.jpeg
p1313
sg1214
VFDBA2F
p1314
sg1216
(dp1315
g1218
(dp1316
g1220
(lp1317
(dp1318
g1218
Vhttp://t.co/USxiNZDUxU
p1319
sg1224
(lp1320
I0
aI22
asg1226
Vhttp://www.africa-interactive.com
p1321
sg1228
Vafrica-interactive.com
p1322
sassg1230
(dp1323
g1220
(lp1324
sssg1233
I3352
sg1234
VFFFFFF
p1325
sg1236
V27833927
p1326
sg1238
VFFFFFF
p1327
sg1240
I129
sg1241
(dp1328
g1261
Nsg1262
I00
sg1263
VFour years after meeting Fredrick Ochieng for the first time, we visited him again in Nairobi - on behalf of Philips: http://t.co/WYOrFAe2U0
p1329
sg1273
Nsg1205
I473484590787866625
sg1279
I0
sg1271
V<a href="https://about.twitter.com/products/tweetdeck" rel="nofollow">TweetDeck</a>
p1330
sg1267
I00
sg1269
Nsg1216
(dp1331
g1247
(lp1332
sg1249
(lp1333
sg1258
(lp1334
sg1220
(lp1335
(dp1336
g1218
Vhttp://t.co/WYOrFAe2U0
p1337
sg1224
(lp1338
I118
aI140
asg1226
Vhttp://bit.ly/SoljeO
p1339
sg1228
Vbit.ly/SoljeO
p1340
sassg1274
Nsg1236
V473484590787866625
p1341
sg1277
I1
sg1280
Nsg1245
I00
sg1278
Nsg1270
NsVpossibly_sensitive
p1342
I00
sg1243
Ven
p1343
sg1265
VMon Jun 02 15:21:38 +0000 2014
p1344
sg1268
Nsg1276
Nssg1281
I00
sg1282
I7200
sg1283
I819
sg1230
VWorking with local professionals worldwide, we are a media production company with a social objective.
p1345
sg1285
I661
sg1286
VAmsterdam + Nairobi
p1346
sg1288
V13242A
p1347
sg1290
Vhttp://pbs.twimg.com/profile_images/3363158152/ddf9bfa855617a68fad5cb67d8c94643_normal.jpeg
p1348
sg1292
Nsg1293
I01
sVprofile_banner_url
p1349
Vhttps://pbs.twimg.com/profile_banners/27833927/1400683395
p1350
sg1294
Vhttp://pbs.twimg.com/profile_background_images/839060409/7dab67b75a2a8615e47476ef8dc5a8eb.jpeg
p1351
sg1254
Vafrica_interact
p1352
sg1243
Ven
p1353
sg1298
I00
sg1299
I2
sg1256
VAfrica Interactive
p1354
sg1301
Nsg1218
Vhttp://t.co/USxiNZDUxU
p1355
sg1265
VTue Mar 31 07:43:50 +0000 2009
p1356
sg1304
I00
sg1305
VAmsterdam
p1357
sg1307
I00
sg1308
I00
sg1309
I00
sa.