(lp0
(dp1
Vfollow_request_sent
p2
NsVprofile_use_background_image
p3
I01
sVdefault_profile_image
p4
I00
sVid
p5
I927108314
sVprofile_background_image_url_https
p6
Vhttps://abs.twimg.com/images/themes/theme1/bg.png
p7
sVverified
p8
I00
sVprofile_text_color
p9
V333333
p10
sVmuting
p11
NsVprofile_image_url_https
p12
Vhttps://pbs.twimg.com/profile_images/439471408037781504/NhSpKbbT_normal.jpeg
p13
sVprofile_sidebar_fill_color
p14
VDDEEF6
p15
sVentities
p16
(dp17
Vurl
p18
(dp19
Vurls
p20
(lp21
(dp22
g18
Vhttp://t.co/wURjIZShBL
p23
sVindices
p24
(lp25
I0
aI22
asVexpanded_url
p26
Vhttp://www.snowdesert.co.ke
p27
sVdisplay_url
p28
Vsnowdesert.co.ke
p29
sassVdescription
p30
(dp31
g20
(lp32
sssVfollowers_count
p33
I116
sVprofile_sidebar_border_color
p34
VC0DEED
p35
sVid_str
p36
V927108314
p37
sVprofile_background_color
p38
VC0DEED
p39
sVlisted_count
p40
I1
sVstatus
p41
(dp42
Vlang
p43
Ven
p44
sVfavorited
p45
I00
sg16
(dp46
Vsymbols
p47
(lp48
sVuser_mentions
p49
(lp50
(dp51
g5
I2470347588
sg24
(lp52
I0
aI13
asg36
V2470347588
p53
sVscreen_name
p54
VNewKenya2017
p55
sVname
p56
VNewKenya2017
p57
sasVhashtags
p58
(lp59
sg20
(lp60
ssVcontributors
p61
NsVtruncated
p62
I00
sVtext
p63
V@NewKenya2017 in which basis if I may ask
p64
sVcreated_at
p65
VThu Jun 05 18:40:48 +0000 2014
p66
sVretweeted
p67
I00
sVin_reply_to_status_id_str
p68
V474620286592368640
p69
sVcoordinates
p70
NsVin_reply_to_user_id_str
p71
V2470347588
p72
sVsource
p73
V<a href="http://twitter.com/download/android" rel="nofollow">Twitter for Android</a>
p74
sVin_reply_to_status_id
p75
I474620286592368640
sVin_reply_to_screen_name
p76
VNewKenya2017
p77
sg36
V474621878355517440
p78
sVplace
p79
NsVretweet_count
p80
I0
sVgeo
p81
Nsg5
I474621878355517440
sVfavorite_count
p82
I0
sVin_reply_to_user_id
p83
I2470347588
ssVis_translation_enabled
p84
I00
sVutc_offset
p85
NsVstatuses_count
p86
I196
sg30
VYoung, Business oriented
p87
sVfriends_count
p88
I1682
sVlocation
p89
VNairobi, Kenya
p90
sVprofile_link_color
p91
V0084B4
p92
sVprofile_image_url
p93
Vhttp://pbs.twimg.com/profile_images/439471408037781504/NhSpKbbT_normal.jpeg
p94
sVfollowing
p95
NsVgeo_enabled
p96
I01
sVprofile_background_image_url
p97
Vhttp://abs.twimg.com/images/themes/theme1/bg.png
p98
sg54
Vrauphbin
p99
sg43
Ven
p100
sVprofile_background_tile
p101
I00
sVfavourites_count
p102
I0
sg56
VElias Chege
p103
sVnotifications
p104
Nsg18
Vhttp://t.co/wURjIZShBL
p105
sg65
VMon Nov 05 07:44:34 +0000 2012
p106
sVcontributors_enabled
p107
I00
sVtime_zone
p108
NsVprotected
p109
I00
sVdefault_profile
p110
I01
sVis_translator
p111
I00
sa(dp112
g2
Nsg3
I01
sg4
I00
sg5
I35179184
sg6
Vhttps://abs.twimg.com/images/themes/theme1/bg.png
p113
sg8
I00
sg9
V333333
p114
sg11
Nsg12
Vhttps://pbs.twimg.com/profile_images/1198114193/Image018_normal.jpg
p115
sg14
VDDEEF6
p116
sg16
(dp117
g30
(dp118
g20
(lp119
sssg33
I184
sg34
VC0DEED
p120
sg36
V35179184
p121
sg38
VC0DEED
p122
sg40
I1
sg41
(dp123
g43
Vde
p124
sg45
I00
sg16
(dp125
g47
(lp126
sg49
(lp127
(dp128
g5
I154876973
sg24
(lp129
I0
aI10
asg36
V154876973
p130
sg54
Voloojl2ke
p131
sg56
VJOL
p132
sasg58
(lp133
(dp134
g24
(lp135
I64
aI78
asg63
VChurchillshow
p136
sasg20
(lp137
ssg61
Nsg62
I00
sg63
V@oloojl2ke Manze umesema ukwelo, Zeddy....... Dem Ghetto Kuruka #Churchillshow
p138
sg65
VSun May 11 17:20:56 +0000 2014
p139
sg67
I00
sg68
V465541224430968832
p140
sg70
Nsg71
V154876973
p141
sg73
V<a href="https://twitter.com/download/android" rel="nofollow">Twitter for  Android</a>
p142
sg75
I465541224430968832
sg76
Voloojl2ke
p143
sg36
V465542083692855296
p144
sg79
Nsg80
I1
sg81
Nsg5
I465542083692855296
sg82
I1
sg83
I154876973
ssg84
I00
sg85
I10800
sg86
I5189
sg30
Vyoung & Ambitious
p145
sg88
I328
sg89
VNairobi
p146
sg91
V0084B4
p147
sg93
Vhttp://pbs.twimg.com/profile_images/1198114193/Image018_normal.jpg
p148
sg95
Nsg96
I01
sg97
Vhttp://abs.twimg.com/images/themes/theme1/bg.png
p149
sg54
VNix_09
p150
sg43
Ven
p151
sg101
I00
sg102
I11
sg56
VNicholas Obam
p152
sg104
Nsg18
Nsg65
VSat Apr 25 08:50:37 +0000 2009
p153
sg107
I00
sg108
VAfrica/Nairobi
p154
sg109
I00
sg110
I01
sg111
I00
sa(dp155
g2
Nsg3
I01
sg4
I00
sg5
I529384590
sg6
Vhttps://pbs.twimg.com/profile_background_images/752569023/76776b0f6222a3011dd3f396007e315b.jpeg
p156
sg8
I00
sg9
V333333
p157
sg11
Nsg12
Vhttps://pbs.twimg.com/profile_images/378800000499619150/e0e6a7993821e5f5602d7917b3c5e200_normal.jpeg
p158
sg14
VDDEEF6
p159
sg16
(dp160
g18
(dp161
g20
(lp162
(dp163
g18
Vhttp://t.co/OkPa1Hu4tB
p164
sg24
(lp165
I0
aI22
asg26
Vhttp://akukumachpep.blogspot.com
p166
sg28
Vakukumachpep.blogspot.com
p167
sassg30
(dp168
g20
(lp169
sssg33
I115
sg34
V000000
p170
sg36
V529384590
p171
sg38
VC0DEED
p172
sg40
I0
sg41
(dp173
g61
Nsg62
I00
sg63
VWhat's your poison? http://t.co/DUOxAj0mSn
p174
sg75
Nsg5
I475379874115624961
sg82
I0
sg73
V<a href="http://www.facebook.com/twitter" rel="nofollow">Facebook</a>
p175
sg67
I00
sg70
Nsg16
(dp176
g47
(lp177
sg49
(lp178
sg58
(lp179
sg20
(lp180
(dp181
g18
Vhttp://t.co/DUOxAj0mSn
p182
sg24
(lp183
I20
aI42
asg26
Vhttp://fb.me/6kYy44NSy
p184
sg28
Vfb.me/6kYy44NSy
p185
sassg76
Nsg36
V475379874115624961
p186
sg80
I0
sg83
Nsg45
I00
sg81
Nsg71
NsVpossibly_sensitive
p187
I00
sg43
Ven
p188
sg65
VSat Jun 07 20:52:48 +0000 2014
p189
sg68
Nsg79
Nssg84
I00
sg85
I10800
sg86
I7775
sg30
VM addicted to anything classic n older: Old music, old wine, odd liqueur, classic cars, older women, old food- I find them old healthier, sweeter, stronger.....
p190
sg88
I477
sg89
VNairobi
p191
sg91
V0084B4
p192
sg93
Vhttp://pbs.twimg.com/profile_images/378800000499619150/e0e6a7993821e5f5602d7917b3c5e200_normal.jpeg
p193
sg95
Nsg96
I01
sVprofile_banner_url
p194
Vhttps://pbs.twimg.com/profile_banners/529384590/1357048651
p195
sg97
Vhttp://pbs.twimg.com/profile_background_images/752569023/76776b0f6222a3011dd3f396007e315b.jpeg
p196
sg54
VAkukuMachPep
p197
sg43
Ven
p198
sg101
I01
sg102
I22
sg56
VAkuku Mach Pep
p199
sg104
Nsg18
Vhttp://t.co/OkPa1Hu4tB
p200
sg65
VMon Mar 19 13:33:10 +0000 2012
p201
sg107
I00
sg108
VNairobi
p202
sg109
I00
sg110
I00
sg111
I00
sa(dp203
g2
Nsg3
I01
sg4
I00
sg5
I614348671
sg6
Vhttps://pbs.twimg.com/profile_background_images/439288599251415041/5pD06FrI.png
p204
sg8
I00
sg9
V333333
p205
sg11
Nsg12
Vhttps://pbs.twimg.com/profile_images/439288892957523968/CSXj4Fhl_normal.png
p206
sg14
VDDEEF6
p207
sg16
(dp208
g18
(dp209
g20
(lp210
(dp211
g18
Vhttp://t.co/hk1oUoxbC3
p212
sg24
(lp213
I0
aI22
asg26
Vhttp://www.irismgt.com
p214
sg28
Virismgt.com
p215
sassg30
(dp216
g20
(lp217
sssg33
I286
sg34
V000000
p218
sg36
V614348671
p219
sg38
VD34FFF
p220
sg40
I0
sg41
(dp221
g61
Nsg62
I00
sg63
VAlways have your stuff when you need it with @Dropbox. Sign up for free! https://t.co/NzvY6PkdGV
p222
sg75
Nsg5
I449527891319980032
sg82
I0
sg73
V<a href="https://dev.twitter.com/docs/tfw" rel="nofollow">Twitter for Websites</a>
p223
sg67
I00
sg70
Nsg16
(dp224
g47
(lp225
sg49
(lp226
(dp227
g5
I14749606
sg24
(lp228
I45
aI53
asg36
V14749606
p229
sg54
VDropbox
p230
sg56
VDropbox
p231
sasg58
(lp232
sg20
(lp233
(dp234
g18
Vhttps://t.co/NzvY6PkdGV
p235
sg24
(lp236
I73
aI96
asg26
Vhttps://db.tt/3NryCaV1
p237
sg28
Vdb.tt/3NryCaV1
p238
sassg76
Nsg36
V449527891319980032
p239
sg80
I0
sg83
Nsg45
I00
sg81
Nsg71
Nsg187
I00
sg43
Ven
p240
sg65
VFri Mar 28 12:46:15 +0000 2014
p241
sg68
Nsg79
Nssg84
I00
sg85
I10800
sg86
I499
sg30
VA Meeting, Association and Corporate Communication Management Company with a passion for working with people.
p242
sg88
I474
sg89
VNairobi
p243
sg91
VC200CC
p244
sg93
Vhttp://pbs.twimg.com/profile_images/439288892957523968/CSXj4Fhl_normal.png
p245
sg95
Nsg96
I01
sg97
Vhttp://pbs.twimg.com/profile_background_images/439288599251415041/5pD06FrI.png
p246
sg54
VIRISMANAGEMENT
p247
sg43
Ven
p248
sg101
I01
sg102
I0
sg56
VIRIS MANAGEMENT 
p249
sg104
Nsg18
Vhttp://t.co/hk1oUoxbC3
p250
sg65
VThu Jun 21 14:12:17 +0000 2012
p251
sg107
I00
sg108
VNairobi
p252
sg109
I00
sg110
I00
sg111
I00
sa.