(lp0
(dp1
Vfollow_request_sent
p2
NsVprofile_use_background_image
p3
I01
sVdefault_profile_image
p4
I00
sVid
p5
I240767482
sVprofile_background_image_url_https
p6
Vhttps://pbs.twimg.com/profile_background_images/378800000133247500/I2ogr9AY.jpeg
p7
sVverified
p8
I00
sVprofile_text_color
p9
V333333
p10
sVmuting
p11
NsVprofile_image_url_https
p12
Vhttps://pbs.twimg.com/profile_images/470603646334296066/np0jpR-h_normal.jpeg
p13
sVprofile_sidebar_fill_color
p14
VF6F6F6
p15
sVentities
p16
(dp17
Vurl
p18
(dp19
Vurls
p20
(lp21
(dp22
g18
Vhttp://t.co/3bzISstjxm
p23
sVindices
p24
(lp25
I0
aI22
asVexpanded_url
p26
Vhttp://www.babu.com
p27
sVdisplay_url
p28
Vbabu.com
p29
sassVdescription
p30
(dp31
g20
(lp32
sssVfollowers_count
p33
I47
sVprofile_sidebar_border_color
p34
VFFFFFF
p35
sVid_str
p36
V240767482
p37
sVprofile_background_color
p38
V272E28
p39
sVlisted_count
p40
I0
sVstatus
p41
(dp42
Vcontributors
p43
NsVtruncated
p44
I00
sVtext
p45
VRT @InspowerMinds: http://t.co/DemLmjwTkv
p46
sVin_reply_to_status_id
p47
Nsg5
I475313212548976641
sVfavorite_count
p48
I0
sVsource
p49
V<a href="http://twitter.com" rel="nofollow">Twitter Web Client</a>
p50
sVretweeted
p51
I00
sVcoordinates
p52
Nsg16
(dp53
Vsymbols
p54
(lp55
sVuser_mentions
p56
(lp57
(dp58
g5
I375481345
sg24
(lp59
I3
aI17
asg36
V375481345
p60
sVscreen_name
p61
VInspowerMinds
p62
sVname
p63
VInspirational Quotes
p64
sasVhashtags
p65
(lp66
sg20
(lp67
sVmedia
p68
(lp69
(dp70
Vsource_status_id_str
p71
V475310976502616065
p72
sg26
Vhttp://twitter.com/InspowerMinds/status/475310976502616065/photo/1
p73
sg28
Vpic.twitter.com/DemLmjwTkv
p74
sg18
Vhttp://t.co/DemLmjwTkv
p75
sVmedia_url_https
p76
Vhttps://pbs.twimg.com/media/Bpik0IwIAAEJdok.png
p77
sVsource_status_id
p78
I475310976502616065
sg36
V475310976297074689
p79
sVsizes
p80
(dp81
Vlarge
p82
(dp83
Vh
p84
I260
sVresize
p85
Vfit
p86
sVw
p87
I510
ssVsmall
p88
(dp89
g84
I173
sg85
Vfit
p90
sg87
I339
ssVmedium
p91
(dp92
g84
I260
sg85
Vfit
p93
sg87
I510
ssVthumb
p94
(dp95
g84
I150
sg85
Vcrop
p96
sg87
I150
sssg24
(lp97
I19
aI41
asVtype
p98
Vphoto
p99
sg5
I475310976297074689
sVmedia_url
p100
Vhttp://pbs.twimg.com/media/Bpik0IwIAAEJdok.png
p101
sassVin_reply_to_screen_name
p102
Nsg36
V475313212548976641
p103
sVretweet_count
p104
I163
sVin_reply_to_user_id
p105
NsVfavorited
p106
I00
sVretweeted_status
p107
(dp108
g43
Nsg44
I00
sg45
Vhttp://t.co/DemLmjwTkv
p109
sg47
Nsg5
I475310976502616065
sg48
I162
sg49
V<a href="http://bufferapp.com" rel="nofollow">Buffer</a>
p110
sg51
I00
sg52
Nsg16
(dp111
g54
(lp112
sg56
(lp113
sg65
(lp114
sg20
(lp115
sg68
(lp116
(dp117
g26
Vhttp://twitter.com/InspowerMinds/status/475310976502616065/photo/1
p118
sg28
Vpic.twitter.com/DemLmjwTkv
p119
sg18
Vhttp://t.co/DemLmjwTkv
p120
sg76
Vhttps://pbs.twimg.com/media/Bpik0IwIAAEJdok.png
p121
sg36
V475310976297074689
p122
sg80
(dp123
g82
(dp124
g84
I260
sg85
Vfit
p125
sg87
I510
ssg88
(dp126
g84
I173
sg85
Vfit
p127
sg87
I339
ssg91
(dp128
g84
I260
sg85
Vfit
p129
sg87
I510
ssg94
(dp130
g84
I150
sg85
Vcrop
p131
sg87
I150
sssg24
(lp132
I0
aI22
asg98
Vphoto
p133
sg5
I475310976297074689
sg100
Vhttp://pbs.twimg.com/media/Bpik0IwIAAEJdok.png
p134
sassg102
Nsg36
V475310976502616065
p135
sg104
I163
sg105
Nsg106
I00
sVgeo
p136
NsVin_reply_to_user_id_str
p137
NsVpossibly_sensitive
p138
I00
sVlang
p139
Vund
p140
sVcreated_at
p141
VSat Jun 07 16:19:02 +0000 2014
p142
sVin_reply_to_status_id_str
p143
NsVplace
p144
Nssg136
Nsg137
Nsg138
I00
sg139
Vund
p145
sg141
VSat Jun 07 16:27:55 +0000 2014
p146
sg143
Nsg144
NssVis_translation_enabled
p147
I00
sVutc_offset
p148
I10800
sVstatuses_count
p149
I381
sg30
VA man who likes making fan to his/her friends,bringing all the people 2gether & GOD fearing to
p150
sVfriends_count
p151
I281
sVlocation
p152
VNAIROBI CITY
p153
sVprofile_link_color
p154
V25373B
p155
sVprofile_image_url
p156
Vhttp://pbs.twimg.com/profile_images/470603646334296066/np0jpR-h_normal.jpeg
p157
sVfollowing
p158
NsVgeo_enabled
p159
I01
sVprofile_banner_url
p160
Vhttps://pbs.twimg.com/profile_banners/240767482/1401035538
p161
sVprofile_background_image_url
p162
Vhttp://pbs.twimg.com/profile_background_images/378800000133247500/I2ogr9AY.jpeg
p163
sg61
Vosieyo
p164
sg139
Ven
p165
sVprofile_background_tile
p166
I00
sVfavourites_count
p167
I1
sg63
Vsam  osieyo
p168
sVnotifications
p169
Nsg18
Vhttp://t.co/3bzISstjxm
p170
sg141
VThu Jan 20 18:03:56 +0000 2011
p171
sVcontributors_enabled
p172
I00
sVtime_zone
p173
VBaghdad
p174
sVprotected
p175
I00
sVdefault_profile
p176
I00
sVis_translator
p177
I00
sa(dp178
g2
Nsg3
I01
sg4
I00
sg5
I155849887
sg6
Vhttps://abs.twimg.com/images/themes/theme10/bg.gif
p179
sg8
I00
sg9
V3D1957
p180
sg11
Nsg12
Vhttps://pbs.twimg.com/profile_images/414502351391977472/CP05rjyW_normal.jpeg
p181
sg14
V7AC3EE
p182
sg16
(dp183
g18
(dp184
g20
(lp185
(dp186
g18
Vhttp://t.co/ffNarbf69l
p187
sg24
(lp188
I0
aI22
asg26
Vhttp://www.youtube.com/blacsyd
p189
sg28
Vyoutube.com/blacsyd
p190
sassg30
(dp191
g20
(lp192
sssg33
I106
sg34
V65B0DA
p193
sg36
V155849887
p194
sg38
V642D8B
p195
sg40
I0
sg41
(dp196
g139
Ven
p197
sg106
I00
sg16
(dp198
g54
(lp199
sg56
(lp200
(dp201
g5
I423517857
sg24
(lp202
I0
aI11
asg36
V423517857
p203
sg61
VThisViktor
p204
sg63
VSHEIKHspeare
p205
sasg65
(lp206
sg20
(lp207
ssg43
Nsg44
I00
sg45
V@ThisViktor Wah! That's funny!
p208
sg141
VFri Jun 06 20:37:42 +0000 2014
p209
sg51
I00
sg143
V475013224287330304
p210
sg52
Nsg137
V423517857
p211
sg49
V<a href="http://www.twitter.com" rel="nofollow">Twitter for Windows Phone</a>
p212
sg47
I475013224287330304
sg102
VThisViktor
p213
sg36
V475013685317222401
p214
sg144
Nsg104
I0
sg136
Nsg5
I475013685317222401
sg48
I0
sg105
I423517857
ssg147
I00
sg148
I-28800
sg149
I1097
sg30
VWise enough to know better but young enough to still do it.
p215
sg151
I149
sg152
VNairobi, Kenya
p216
sg154
VFF0000
p217
sg156
Vhttp://pbs.twimg.com/profile_images/414502351391977472/CP05rjyW_normal.jpeg
p218
sg158
Nsg159
I01
sg160
Vhttps://pbs.twimg.com/profile_banners/155849887/1379962979
p219
sg162
Vhttp://abs.twimg.com/images/themes/theme10/bg.gif
p220
sg61
VVicksMe
p221
sg139
Ven
p222
sg166
I01
sg167
I30
sg63
VVictor Muchiri
p223
sg169
Nsg18
Vhttp://t.co/ffNarbf69l
p224
sg141
VTue Jun 15 09:29:06 +0000 2010
p225
sg172
I00
sg173
VAlaska
p226
sg175
I00
sg176
I00
sg177
I00
sa.