(lp0
(dp1
Vfollow_request_sent
p2
NsVprofile_use_background_image
p3
I01
sVdefault_profile_image
p4
I00
sVid
p5
I227658370
sVprofile_background_image_url_https
p6
Vhttps://abs.twimg.com/images/themes/theme1/bg.png
p7
sVverified
p8
I00
sVprofile_text_color
p9
V333333
p10
sVmuting
p11
NsVprofile_image_url_https
p12
Vhttps://pbs.twimg.com/profile_images/420120984730214400/PZO3AJnO_normal.jpeg
p13
sVprofile_sidebar_fill_color
p14
VDDEEF6
p15
sVentities
p16
(dp17
Vurl
p18
(dp19
Vurls
p20
(lp21
(dp22
g18
Vhttp://t.co/j2bi1S01iq
p23
sVindices
p24
(lp25
I0
aI22
asVexpanded_url
p26
Vhttp://www.mtnbusiness.co.ke
p27
sVdisplay_url
p28
Vmtnbusiness.co.ke
p29
sassVdescription
p30
(dp31
g20
(lp32
sssVfollowers_count
p33
I332
sVprofile_sidebar_border_color
p34
VC0DEED
p35
sVid_str
p36
V227658370
p37
sVprofile_background_color
p38
VC0DEED
p39
sVlisted_count
p40
I0
sVstatus
p41
(dp42
Vcontributors
p43
NsVtruncated
p44
I00
sVtext
p45
VRT @kipmurkomen: Take it from me there will be no Baraza on 7/7. If someone has issues use existing governance structures like the parliame\u2026
p46
sVin_reply_to_status_id
p47
Nsg5
I473064764965675009
sVfavorite_count
p48
I0
sVsource
p49
V<a href="http://twitter.com/download/android" rel="nofollow">Twitter for Android</a>
p50
sVretweeted
p51
I00
sVcoordinates
p52
Nsg16
(dp53
Vsymbols
p54
(lp55
sVuser_mentions
p56
(lp57
(dp58
g5
I256136003
sg24
(lp59
I3
aI15
asg36
V256136003
p60
sVscreen_name
p61
Vkipmurkomen
p62
sVname
p63
VSENATOR MURKOMEN
p64
sasVhashtags
p65
(lp66
sg20
(lp67
ssVin_reply_to_screen_name
p68
Nsg36
V473064764965675009
p69
sVretweet_count
p70
I52
sVin_reply_to_user_id
p71
NsVfavorited
p72
I00
sVretweeted_status
p73
(dp74
Vlang
p75
Ven
p76
sg72
I00
sg16
(dp77
g54
(lp78
sg56
(lp79
sg65
(lp80
sg20
(lp81
ssg43
Nsg44
I00
sg45
VTake it from me there will be no Baraza on 7/7. If someone has issues use existing governance structures like the parliament,ministry et al
p82
sVcreated_at
p83
VSun Jun 01 11:08:25 +0000 2014
p84
sg51
I00
sVin_reply_to_status_id_str
p85
Nsg52
NsVin_reply_to_user_id_str
p86
Nsg49
V<a href="http://twitter.com/download/android" rel="nofollow">Twitter for Android</a>
p87
sg47
Nsg68
Nsg36
V473058481562349568
p88
sVplace
p89
Nsg70
I52
sVgeo
p90
Nsg5
I473058481562349568
sg48
I23
sg71
Nssg90
Nsg86
Nsg75
Ven
p91
sg83
VSun Jun 01 11:33:23 +0000 2014
p92
sg85
Nsg89
NssVis_translation_enabled
p93
I00
sVutc_offset
p94
I-18000
sVstatuses_count
p95
I605
sg30
Va husband, a father of two sons, a business strategist, and consultant
p96
sVfriends_count
p97
I1205
sVlocation
p98
VNairobi, Kenya
p99
sVprofile_link_color
p100
V0084B4
p101
sVprofile_image_url
p102
Vhttp://pbs.twimg.com/profile_images/420120984730214400/PZO3AJnO_normal.jpeg
p103
sVfollowing
p104
NsVgeo_enabled
p105
I01
sVprofile_background_image_url
p106
Vhttp://abs.twimg.com/images/themes/theme1/bg.png
p107
sg61
Vjkaburu
p108
sg75
Ven
p109
sVprofile_background_tile
p110
I00
sVfavourites_count
p111
I8
sg63
VJohn Busunkwi
p112
sVnotifications
p113
Nsg18
Vhttp://t.co/j2bi1S01iq
p114
sg83
VFri Dec 17 12:51:54 +0000 2010
p115
sVcontributors_enabled
p116
I00
sVtime_zone
p117
VQuito
p118
sVprotected
p119
I00
sVdefault_profile
p120
I01
sVis_translator
p121
I00
sa(dp122
g2
Nsg3
I01
sg4
I00
sg5
I713761584
sg6
Vhttps://abs.twimg.com/images/themes/theme1/bg.png
p123
sg8
I00
sg9
V333333
p124
sg11
Nsg12
Vhttps://pbs.twimg.com/profile_images/2645901448/071bfc97ca275514794e1c9f39fda673_normal.jpeg
p125
sg14
VDDEEF6
p126
sg16
(dp127
g30
(dp128
g20
(lp129
sssg33
I99
sg34
VC0DEED
p130
sg36
V713761584
p131
sg38
VC0DEED
p132
sg40
I0
sg41
(dp133
g43
Nsg44
I00
sg45
VRT @riKKci: Vera spent 50mil = #What50MillionCanDo, 117 elephants are killed = no harsh tag, clearly carcases are a dead topic
p134
sg47
Nsg5
I475379825684004865
sg48
I0
sg49
V<a href="http://twitter.com" rel="nofollow">Twitter Web Client</a>
p135
sg51
I00
sg52
Nsg16
(dp136
g54
(lp137
sg56
(lp138
(dp139
g5
I333488739
sg24
(lp140
I3
aI10
asg36
V333488739
p141
sg61
VriKKci
p142
sg63
VRik(2.54Mly)
p143
sasg65
(lp144
(dp145
g24
(lp146
I31
aI50
asg45
VWhat50MillionCanDo
p147
sasg20
(lp148
ssg68
Nsg36
V475379825684004865
p149
sg70
I3
sg71
Nsg72
I00
sg73
(dp150
g75
Ven
p151
sg72
I00
sg16
(dp152
g54
(lp153
sg56
(lp154
sg65
(lp155
(dp156
g24
(lp157
I19
aI38
asg45
VWhat50MillionCanDo
p158
sasg20
(lp159
ssg43
Nsg44
I00
sg45
VVera spent 50mil = #What50MillionCanDo, 117 elephants are killed = no harsh tag, clearly carcases are a dead topic
p160
sg83
VSat Jun 07 16:48:31 +0000 2014
p161
sg51
I00
sg85
Nsg52
Nsg86
Nsg49
V<a href="http://www.cloudhopper.com/" rel="nofollow">Cloudhopper</a>
p162
sg47
Nsg68
Nsg36
V475318397316919296
p163
sg89
Nsg70
I3
sg90
Nsg5
I475318397316919296
sg48
I0
sg71
Nssg90
Nsg86
Nsg75
Ven
p164
sg83
VSat Jun 07 20:52:37 +0000 2014
p165
sg85
Nsg89
Nssg93
I00
sg94
Nsg95
I3288
sg30
VThose who think they know everything really annoy those of us who do.
p166
sg97
I214
sg98
V A 109 Nairobi
p167
sg100
V0084B4
p168
sg102
Vhttp://pbs.twimg.com/profile_images/2645901448/071bfc97ca275514794e1c9f39fda673_normal.jpeg
p169
sg104
Nsg105
I01
sg106
Vhttp://abs.twimg.com/images/themes/theme1/bg.png
p170
sg61
VMukoraNdigi
p171
sg75
Ven
p172
sg110
I00
sg111
I12
sg63
VNelson Mukora
p173
sg113
Nsg18
Nsg83
VTue Jul 24 05:50:44 +0000 2012
p174
sg116
I00
sg117
Nsg119
I00
sg120
I01
sg121
I00
sa(dp175
g2
Nsg3
I01
sg4
I00
sg5
I107395966
sg6
Vhttps://abs.twimg.com/images/themes/theme1/bg.png
p176
sg8
I00
sg9
V333333
p177
sg11
Nsg12
Vhttps://pbs.twimg.com/profile_images/470810135711862784/vXXfCYaL_normal.jpeg
p178
sg14
VDDEEF6
p179
sg16
(dp180
g30
(dp181
g20
(lp182
sssg33
I169
sg34
VC0DEED
p183
sg36
V107395966
p184
sg38
VC0DEED
p185
sg40
I0
sg41
(dp186
g75
Ven
p187
sg72
I00
sg16
(dp188
g54
(lp189
sg56
(lp190
(dp191
g5
I92731878
sg24
(lp192
I77
aI93
asg36
V92731878
p193
sg61
VCapitalFM_kenya
p194
sg63
VCapital FM Kenya
p195
sa(dp196
g5
I129862424
sg24
(lp197
I94
aI109
asg36
V129862424
p198
sg61
Vnjoguwanjoroge
p199
sg63
VJohn Njogu Njoroge
p200
sa(dp201
g5
I42970712
sg24
(lp202
I110
aI125
asg36
V42970712
p203
sg61
VGitobuImanyara
p204
sg63
VGitobu Imanyara
p205
sa(dp206
g5
I1611076452
sg24
(lp207
I126
aI139
asg36
V1611076452
p208
sg61
VLarryMadowo1
p209
sg63
VLarry Madowo
p210
sasg65
(lp211
sg20
(lp212
ssg43
Nsg44
I00
sg45
VIs Jubilee and CORD on collision to warrant mediation or just an opportunity?@CapitalFM_kenya @njoguwanjoroge @GitobuImanyara @LarryMadowo1
p213
sg83
VSun Jun 08 13:10:00 +0000 2014
p214
sg51
I00
sg85
Nsg52
Nsg86
Nsg49
V<a href="http://twitter.com" rel="nofollow">Twitter Web Client</a>
p215
sg47
Nsg68
Nsg36
V475625794228588544
p216
sg89
Nsg70
I0
sg90
Nsg5
I475625794228588544
sg48
I0
sg71
Nssg93
I00
sg94
Nsg95
I228
sg30
VA Kenyan with love for his Country
p217
sg97
I507
sg98
VNairobi
p218
sg100
V0084B4
p219
sg102
Vhttp://pbs.twimg.com/profile_images/470810135711862784/vXXfCYaL_normal.jpeg
p220
sg104
Nsg105
I01
sVprofile_banner_url
p221
Vhttps://pbs.twimg.com/profile_banners/107395966/1359632250
p222
sg106
Vhttp://abs.twimg.com/images/themes/theme1/bg.png
p223
sg61
Vsimainah
p224
sg75
Ven
p225
sg110
I00
sg111
I3
sg63
VStephen Maina
p226
sg113
Nsg18
Nsg83
VFri Jan 22 12:23:14 +0000 2010
p227
sg116
I00
sg117
Nsg119
I00
sg120
I01
sg121
I00
sa(dp228
g2
Nsg3
I01
sg4
I00
sg5
I494852787
sg6
Vhttps://pbs.twimg.com/profile_background_images/766823165/5adafe8c2d77ff00f1f346145424c3fc.jpeg
p229
sg8
I00
sg9
V333333
p230
sg11
Nsg12
Vhttps://pbs.twimg.com/profile_images/3607772105/1b295f5cde1aa0c8ebe163524cc67fb0_normal.png
p231
sg14
VFFFFFF
p232
sg16
(dp233
g18
(dp234
g20
(lp235
(dp236
g18
Vhttp://t.co/lusyXbKCcP
p237
sg24
(lp238
I0
aI22
asg26
Vhttp://kycckenya.com/
p239
sg28
Vkycckenya.com
p240
sassg30
(dp241
g20
(lp242
sssg33
I185
sg34
VFFFFFF
p243
sg36
V494852787
p244
sg38
VB2DFDA
p245
sg40
I0
sg41
(dp246
g43
Nsg44
I00
sg45
VI think propane is a good idea.Affordable,readily available and environment friendly.It saves you on electricity... http://t.co/rjMWZ8Hly8
p247
sg47
Nsg5
I453464874626994176
sg48
I0
sg49
V<a href="http://www.facebook.com/twitter" rel="nofollow">Facebook</a>
p248
sg51
I00
sg52
Nsg16
(dp249
g54
(lp250
sg56
(lp251
sg65
(lp252
sg20
(lp253
(dp254
g18
Vhttp://t.co/rjMWZ8Hly8
p255
sg24
(lp256
I116
aI138
asg26
Vhttp://fb.me/6p3ffvdUT
p257
sg28
Vfb.me/6p3ffvdUT
p258
sassg68
Nsg36
V453464874626994176
p259
sg70
I0
sg71
Nsg72
I00
sg90
Nsg86
NsVpossibly_sensitive
p260
I00
sg75
Ven
p261
sg83
VTue Apr 08 09:30:25 +0000 2014
p262
sg85
Nsg89
Nssg93
I00
sg94
I10800
sg95
I417
sg30
VPromoting conscious thought and awareness towards action in caring for our environment.LOVE KENYA,keep your county clean.
p263
sg97
I259
sg98
Vnairobi,kenya
p264
sg100
V93A644
p265
sg102
Vhttp://pbs.twimg.com/profile_images/3607772105/1b295f5cde1aa0c8ebe163524cc67fb0_normal.png
p266
sg104
Nsg105
I01
sg221
Vhttps://pbs.twimg.com/profile_banners/494852787/1369993325
p267
sg106
Vhttp://pbs.twimg.com/profile_background_images/766823165/5adafe8c2d77ff00f1f346145424c3fc.jpeg
p268
sg61
VkyccKENYA
p269
sg75
Ven
p270
sg110
I01
sg111
I14
sg63
Vcleankenya
p271
sg113
Nsg18
Vhttp://t.co/lusyXbKCcP
p272
sg83
VFri Feb 17 10:06:58 +0000 2012
p273
sg116
I00
sg117
VBaghdad
p274
sg119
I00
sg120
I00
sg121
I00
sa(dp275
g2
Nsg3
I01
sg4
I00
sg5
I219583381
sg6
Vhttps://pbs.twimg.com/profile_background_images/862443061/5f6d43862cc42215e91018d2976d0da5.jpeg
p276
sg8
I00
sg9
V333333
p277
sg11
Nsg12
Vhttps://pbs.twimg.com/profile_images/2381485990/1rxd44255h4gz4ztdngb_normal.jpeg
p278
sg14
VDDEEF6
p279
sg16
(dp280
g18
(dp281
g20
(lp282
(dp283
g18
Vhttp://t.co/kOlkqr0KWg
p284
sg24
(lp285
I0
aI22
asg26
Vhttp://www.ieakenya.or.ke
p286
sg28
Vieakenya.or.ke
p287
sassg30
(dp288
g20
(lp289
sssg33
I3429
sg34
V000000
p290
sg36
V219583381
p291
sg38
V545657
p292
sg40
I23
sg41
(dp293
g43
Nsg44
I00
sg45
VChina tightens grip on #Africa http://t.co/Gq70TXCLtE
p294
sg47
Nsg5
I471559121758851072
sg48
I0
sg49
V<a href="http://twitter.com" rel="nofollow">Twitter Web Client</a>
p295
sg51
I00
sg52
Nsg16
(dp296
g54
(lp297
sg56
(lp298
sg65
(lp299
(dp300
g24
(lp301
I23
aI30
asg45
VAfrica
p302
sasg20
(lp303
(dp304
g18
Vhttp://t.co/Gq70TXCLtE
p305
sg24
(lp306
I31
aI53
asg26
Vhttp://www.ieakenya.or.ke/in-the-media/media-coverage/197-africa-china-tightens-grip-on-africa
p307
sg28
Vieakenya.or.ke/in-the-media/m\u2026
p308
sassg68
Nsg36
V471559121758851072
p309
sg70
I2
sg71
Nsg72
I00
sg90
Nsg86
Nsg260
I00
sg75
Ven
p310
sg83
VWed May 28 07:50:30 +0000 2014
p311
sg85
Nsg89
Nssg93
I00
sg94
I10800
sg95
I3005
sg30
VInstitute of Economic Affairs is a Public Policy think tank that seeks to promote pluralism of ideas through open, active and informed public debates
p312
sg97
I1831
sg98
VNairobi, Kenya 
p313
sg100
V0084B4
p314
sg102
Vhttp://pbs.twimg.com/profile_images/2381485990/1rxd44255h4gz4ztdngb_normal.jpeg
p315
sg104
Nsg105
I01
sg221
Vhttps://pbs.twimg.com/profile_banners/219583381/1367917468
p316
sg106
Vhttp://pbs.twimg.com/profile_background_images/862443061/5f6d43862cc42215e91018d2976d0da5.jpeg
p317
sg61
VIEAKenya
p318
sg75
Ven
p319
sg110
I00
sg111
I14
sg63
VIEA Kenya
p320
sg113
Nsg18
Vhttp://t.co/kOlkqr0KWg
p321
sg83
VThu Nov 25 08:02:11 +0000 2010
p322
sg116
I00
sg117
VNairobi
p323
sg119
I00
sg120
I00
sg121
I00
sa(dp324
g2
Nsg3
I01
sg4
I00
sg5
I35751127
sg6
Vhttps://abs.twimg.com/images/themes/theme1/bg.png
p325
sg8
I00
sg9
V333333
p326
sg11
Nsg12
Vhttps://pbs.twimg.com/profile_images/459765759644692480/x8m-kXHy_normal.jpeg
p327
sg14
VDDEEF6
p328
sg16
(dp329
g30
(dp330
g20
(lp331
sssg33
I4010
sg34
VC0DEED
p332
sg36
V35751127
p333
sg38
VC0DEED
p334
sg40
I7
sg41
(dp335
g43
Nsg44
I00
sg45
VRT @CitizenTVNews: State House postpones indefinitely a national conference dubbed \u2018National Rebirth\u2019 planned for July 2014 due to \u2018politic\u2026
p336
sg47
Nsg5
I475660704088076288
sg48
I0
sg49
V<a href="http://twitter.com/download/android" rel="nofollow">Twitter for Android</a>
p337
sg51
I00
sg52
Nsg16
(dp338
g54
(lp339
sg56
(lp340
(dp341
g5
I600802933
sg24
(lp342
I3
aI17
asg36
V600802933
p343
sg61
VCitizenTVNews
p344
sg63
VCitizen TV News
p345
sasg65
(lp346
sg20
(lp347
ssg68
Nsg36
V475660704088076288
p348
sg70
I4
sg71
Nsg72
I00
sg73
(dp349
g75
Ven
p350
sg72
I00
sg16
(dp351
g54
(lp352
sg56
(lp353
sg65
(lp354
sg20
(lp355
ssg43
Nsg44
I00
sg45
VState House postpones indefinitely a national conference dubbed \u2018National Rebirth\u2019 planned for July 2014 due to \u2018politicization\u2019.
p356
sg83
VSun Jun 08 15:25:05 +0000 2014
p357
sg51
I00
sg85
Nsg52
Nsg86
Nsg49
V<a href="http://twitter.com" rel="nofollow">Twitter Web Client</a>
p358
sg47
Nsg68
Nsg36
V475659788668633088
p359
sg89
Nsg70
I4
sg90
Nsg5
I475659788668633088
sg48
I0
sg71
Nssg90
Nsg86
Nsg75
Ven
p360
sg83
VSun Jun 08 15:28:43 +0000 2014
p361
sg85
Nsg89
Nssg93
I00
sg94
I10800
sg95
I12266
sg30
VCorporate Communications Architect | Laikipia Rancher | Tech Disciple | Retail fan | Proudly Kenyan!
p362
sg97
I1127
sg98
VNairobi, Kenya
p363
sg100
V0084B4
p364
sg102
Vhttp://pbs.twimg.com/profile_images/459765759644692480/x8m-kXHy_normal.jpeg
p365
sg104
Nsg105
I01
sg106
Vhttp://abs.twimg.com/images/themes/theme1/bg.png
p366
sg61
VAlfienganga
p367
sg75
Ven
p368
sg110
I00
sg111
I22
sg63
VAlfred Ng'ang'a
p369
sg113
Nsg18
Nsg83
VMon Apr 27 14:16:06 +0000 2009
p370
sg116
I00
sg117
VNairobi
p371
sg119
I00
sg120
I01
sg121
I00
sa(dp372
g2
Nsg3
I01
sg4
I00
sg5
I240314792
sg6
Vhttps://pbs.twimg.com/profile_background_images/693102532/b274868a39a39c8d9878091cc39e1ee8.jpeg
p373
sg8
I00
sg9
VC8A86F
p374
sg11
Nsg12
Vhttps://pbs.twimg.com/profile_images/378800000429648901/9667af938379313fcacf25c40fe84039_normal.jpeg
p375
sg14
V20201E
p376
sg16
(dp377
g30
(dp378
g20
(lp379
sssg33
I268
sg34
VC8A867
p380
sg36
V240314792
p381
sg38
V20201E
p382
sg40
I0
sg41
(dp383
g43
Nsg44
I00
sg45
VCrazy accident involving a truck n a mercedes both on fire on msa road :-( http://t.co/cNmO2BQ1pd
p384
sg47
Nsg5
I447379573987364864
sg48
I0
sg49
V<a href="http://www.sonymobile.com" rel="nofollow">Sony Xperia\u2122 smartphone</a>
p385
sg51
I00
sg52
Nsg16
(dp386
g54
(lp387
sg56
(lp388
sg65
(lp389
sg20
(lp390
sVmedia
p391
(lp392
(dp393
g26
Vhttp://twitter.com/ceeymwaura/status/447379573987364864/photo/1
p394
sg28
Vpic.twitter.com/cNmO2BQ1pd
p395
sg18
Vhttp://t.co/cNmO2BQ1pd
p396
sVmedia_url_https
p397
Vhttps://pbs.twimg.com/media/BjVpWhVIAAAvjMf.jpg
p398
sg36
V447379573618245632
p399
sVsizes
p400
(dp401
Vsmall
p402
(dp403
Vh
p404
I191
sVresize
p405
Vfit
p406
sVw
p407
I340
ssVlarge
p408
(dp409
g404
I576
sg405
Vfit
p410
sg407
I1024
ssVmedium
p411
(dp412
g404
I337
sg405
Vfit
p413
sg407
I600
ssVthumb
p414
(dp415
g404
I150
sg405
Vcrop
p416
sg407
I150
sssg24
(lp417
I75
aI97
asVtype
p418
Vphoto
p419
sg5
I447379573618245632
sVmedia_url
p420
Vhttp://pbs.twimg.com/media/BjVpWhVIAAAvjMf.jpg
p421
sassg68
Nsg36
V447379573987364864
p422
sg70
I1
sg71
Nsg72
I00
sg90
Nsg86
Nsg260
I00
sg75
Ven
p423
sg83
VSat Mar 22 14:29:37 +0000 2014
p424
sg85
Nsg89
Nssg93
I00
sg94
I10800
sg95
I471
sg30
VBlessed ;-)
p425
sg97
I570
sg98
VNairobi, Kenya
p426
sg100
V897856
p427
sg102
Vhttp://pbs.twimg.com/profile_images/378800000429648901/9667af938379313fcacf25c40fe84039_normal.jpeg
p428
sg104
Nsg105
I01
sg221
Vhttps://pbs.twimg.com/profile_banners/240314792/1378654173
p429
sg106
Vhttp://pbs.twimg.com/profile_background_images/693102532/b274868a39a39c8d9878091cc39e1ee8.jpeg
p430
sg61
Vceeymwaura
p431
sg75
Ven
p432
sg110
I00
sg111
I22
sg63
VCynthia Mwaura
p433
sg113
Nsg18
Nsg83
VWed Jan 19 16:56:24 +0000 2011
p434
sg116
I00
sg117
VNairobi
p435
sg119
I00
sg120
I00
sg121
I00
sa(dp436
g2
Nsg3
I01
sg4
I00
sg5
I133233636
sg6
Vhttps://abs.twimg.com/images/themes/theme13/bg.gif
p437
sg8
I00
sg9
V333333
p438
sg11
Nsg12
Vhttps://pbs.twimg.com/profile_images/426092461455200256/LdUzh_Fq_normal.jpeg
p439
sg14
VFFFFFF
p440
sg16
(dp441
g18
(dp442
g20
(lp443
(dp444
g18
Vhttp://t.co/9GB7AqQKEC
p445
sg24
(lp446
I0
aI22
asg26
Vhttp://www.njeri-rionge.com
p447
sg28
Vnjeri-rionge.com
p448
sassg30
(dp449
g20
(lp450
sssg33
I5116
sg34
VEEEEEE
p451
sg36
V133233636
p452
sg38
VB2DFDA
p453
sg40
I60
sg41
(dp454
g43
Nsg44
I00
sg45
VMan knows himself only to the extent that he knows the world; he becomes aware of himself only within the world. http://t.co/dbZCGoiQ8y
p455
sg47
Nsg5
I475376956301918209
sg48
I1
sg49
V<a href="http://twitter.com/download/iphone" rel="nofollow">Twitter for iPhone</a>
p456
sg51
I00
sg52
Nsg16
(dp457
g54
(lp458
sg56
(lp459
sg65
(lp460
sg20
(lp461
sg391
(lp462
(dp463
g26
Vhttp://twitter.com/njeririonge/status/475376956301918209/photo/1
p464
sg28
Vpic.twitter.com/dbZCGoiQ8y
p465
sg18
Vhttp://t.co/dbZCGoiQ8y
p466
sg397
Vhttps://pbs.twimg.com/media/Bpjg0njIgAEL29Z.jpg
p467
sg36
V475376955261747201
p468
sg400
(dp469
g408
(dp470
g404
I764
sg405
Vfit
p471
sg407
I1024
ssg402
(dp472
g404
I254
sg405
Vfit
p473
sg407
I340
ssg411
(dp474
g404
I448
sg405
Vfit
p475
sg407
I600
ssg414
(dp476
g404
I150
sg405
Vcrop
p477
sg407
I150
sssg24
(lp478
I113
aI135
asg418
Vphoto
p479
sg5
I475376955261747201
sg420
Vhttp://pbs.twimg.com/media/Bpjg0njIgAEL29Z.jpg
p480
sassg68
Nsg36
V475376956301918209
p481
sg70
I1
sg71
Nsg72
I00
sg90
Nsg86
Nsg260
I00
sg75
Ven
p482
sg83
VSat Jun 07 20:41:13 +0000 2014
p483
sg85
Nsg89
Nssg93
I00
sg94
I10800
sg95
I2743
sg30
VI am an Entrepreneur, Business, Brand & Marketing Strategist, Change Manager, Administrator, Audit, Performance, Project Management, and Governance Expert.
p484
sg97
I2949
sg98
VNairobi and Toronto
p485
sg100
V93A644
p486
sg102
Vhttp://pbs.twimg.com/profile_images/426092461455200256/LdUzh_Fq_normal.jpeg
p487
sg104
Nsg105
I01
sg221
Vhttps://pbs.twimg.com/profile_banners/133233636/1349009675
p488
sg106
Vhttp://abs.twimg.com/images/themes/theme13/bg.gif
p489
sg61
Vnjeririonge
p490
sg75
Ven
p491
sg110
I00
sg111
I544
sg63
VHappiness
p492
sg113
Nsg18
Vhttp://t.co/9GB7AqQKEC
p493
sg83
VThu Apr 15 10:16:18 +0000 2010
p494
sg116
I00
sg117
VNairobi
p495
sg119
I00
sg120
I00
sg121
I00
sa(dp496
g2
Nsg3
I01
sg4
I00
sg5
I143041706
sg6
Vhttps://abs.twimg.com/images/themes/theme1/bg.png
p497
sg8
I00
sg9
V333333
p498
sg11
Nsg12
Vhttps://pbs.twimg.com/profile_images/2806973762/0fe29d874ba195b6db34f5792b52580c_normal.jpeg
p499
sg14
VDDEEF6
p500
sg16
(dp501
g30
(dp502
g20
(lp503
sssg33
I150
sg34
VC0DEED
p504
sg36
V143041706
p505
sg38
VC0DEED
p506
sg40
I0
sg41
(dp507
g43
Nsg44
I00
sg45
VRT @NationBreaking: MOTORISTS STRANDED at Ntulele on the Mai Mahiu-Narok road as angry protestors block traffic and light fires on the road\u2026
p508
sg47
Nsg5
I475220343213555712
sg48
I0
sg49
V<a href="http://twitter.com/download/android" rel="nofollow">Twitter for Android</a>
p509
sg51
I00
sg52
Nsg16
(dp510
g54
(lp511
sg56
(lp512
(dp513
g5
I1731878023
sg24
(lp514
I3
aI18
asg36
V1731878023
p515
sg61
VNationBreaking
p516
sg63
VNationBreakingNews
p517
sasg65
(lp518
sg20
(lp519
ssg68
Nsg36
V475220343213555712
p520
sg70
I40
sg71
Nsg72
I00
sg73
(dp521
g75
Ven
p522
sg72
I00
sg16
(dp523
g54
(lp524
sg56
(lp525
sg65
(lp526
sg20
(lp527
ssg43
Nsg44
I00
sg45
VMOTORISTS STRANDED at Ntulele on the Mai Mahiu-Narok road as angry protestors block traffic and light fires on the road over insecurity.
p528
sg83
VSat Jun 07 09:51:15 +0000 2014
p529
sg51
I00
sg85
Nsg52
Nsg86
Nsg49
V<a href="https://about.twitter.com/products/tweetdeck" rel="nofollow">TweetDeck</a>
p530
sg47
Nsg68
Nsg36
V475213388935864320
p531
sg89
Nsg70
I40
sg90
Nsg5
I475213388935864320
sg48
I6
sg71
Nssg90
Nsg86
Nsg75
Ven
p532
sg83
VSat Jun 07 10:18:53 +0000 2014
p533
sg85
Nsg89
Nssg93
I00
sg94
Nsg95
I98
sg30
VIt isn't our position but our disposition which makes us happy.
p534
sg97
I489
sg98
VNairobi Kenya
p535
sg100
V8000B3
p536
sg102
Vhttp://pbs.twimg.com/profile_images/2806973762/0fe29d874ba195b6db34f5792b52580c_normal.jpeg
p537
sg104
Nsg105
I01
sg221
Vhttps://pbs.twimg.com/profile_banners/143041706/1400762773
p538
sg106
Vhttp://abs.twimg.com/images/themes/theme1/bg.png
p539
sg61
VRosekagori
p540
sg75
Ven
p541
sg110
I00
sg111
I8
sg63
VRose Kagori
p542
sg113
Nsg18
Nsg83
VWed May 12 12:31:20 +0000 2010
p543
sg116
I00
sg117
Nsg119
I00
sg120
I00
sg121
I00
sa(dp544
g2
Nsg3
I01
sg4
I00
sg5
I130839325
sg6
Vhttps://pbs.twimg.com/profile_background_images/603674541/zsa4thhwf8c9yryjqgim.jpeg
p545
sg8
I00
sg9
V3D1957
p546
sg11
Nsg12
Vhttps://pbs.twimg.com/profile_images/2052557154/DSC00753_2_normal.JPG
p547
sg14
V7AC3EE
p548
sg16
(dp549
g30
(dp550
g20
(lp551
sssg33
I750
sg34
V65B0DA
p552
sg36
V130839325
p553
sg38
V642D8B
p554
sg40
I2
sg41
(dp555
g43
Nsg44
I00
sg45
VRT @khamab: Love the build up on supersport towards world cup @SuperSportTV @dstv_kenya
p556
sg47
Nsg5
I475615364358082560
sg48
I0
sg49
V<a href="http://twitter.com/download/iphone" rel="nofollow">Twitter for iPhone</a>
p557
sg51
I00
sg52
Nsg16
(dp558
g54
(lp559
sg56
(lp560
(dp561
g5
I45496278
sg24
(lp562
I3
aI10
asg36
V45496278
p563
sg61
Vkhamab
p564
sg63
Vbonnie khama
p565
sa(dp566
g5
I29930178
sg24
(lp567
I62
aI75
asg36
V29930178
p568
sg61
VSuperSportTV
p569
sg63
VSuperSport
p570
sa(dp571
g5
I395194959
sg24
(lp572
I76
aI87
asg36
V395194959
p573
sg61
VDStv_Kenya
p574
sg63
VDStv Kenya
p575
sasg65
(lp576
sg20
(lp577
ssg68
Nsg36
V475615364358082560
p578
sg70
I1
sg71
Nsg72
I00
sg73
(dp579
g75
Ven
p580
sg72
I00
sg16
(dp581
g54
(lp582
sg56
(lp583
(dp584
g5
I29930178
sg24
(lp585
I50
aI63
asg36
V29930178
p586
sg61
VSuperSportTV
p587
sg63
VSuperSport
p588
sa(dp589
g5
I395194959
sg24
(lp590
I64
aI75
asg36
V395194959
p591
sg61
VDStv_Kenya
p592
sg63
VDStv Kenya
p593
sasg65
(lp594
sg20
(lp595
ssg43
Nsg44
I00
sg45
VLove the build up on supersport towards world cup @SuperSportTV @dstv_kenya
p596
sg83
VSun Jun 01 17:21:06 +0000 2014
p597
sg51
I00
sg85
Nsg52
(dp598
g418
VPoint
p599
sg52
(lp600
F36.90592
aF-1.30519
assg86
Nsg49
V<a href="http://www.twitter.com" rel="nofollow">Twitter for Windows Phone</a>
p601
sg47
Nsg68
Nsg36
V473152268263759873
p602
sg89
(dp603
Vfull_name
p604
VKenya
p605
sg18
Vhttps://api.twitter.com/1.1/geo/id/17ad6a68301cd28b.json
p606
sVcountry
p607
VKenya
p608
sVplace_type
p609
Vcountry
p610
sVbounding_box
p611
(dp612
g418
VPolygon
p613
sg52
(lp614
(lp615
(lp616
F33.8904683840002
aF-4.67750416499992
aa(lp617
F41.8850191650002
aF-4.67750416499992
aa(lp618
F41.8850191650002
aF5.03037582260771
aa(lp619
F33.8904683840002
aF5.03037582260771
aaassVcontained_within
p620
(lp621
sVcountry_code
p622
VKE
p623
sVattributes
p624
(dp625
sg5
V17ad6a68301cd28b
p626
sg63
VKenya
p627
ssg70
I1
sg90
(dp628
g418
VPoint
p629
sg52
(lp630
F-1.30519
aF36.90592
assg5
I473152268263759873
sg48
I1
sg71
Nssg90
Nsg86
Nsg75
Ven
p631
sg83
VSun Jun 08 12:28:34 +0000 2014
p632
sg85
Nsg89
Nssg93
I00
sg94
I10800
sg95
I1677
sg30
VThe Bold & the Beautiful, I live everyday to the fullest. A Blue army, avid Golfer. I love my family,God is my Rock.
p633
sg97
I1141
sg98
VNairobi
p634
sg100
VFF0000
p635
sg102
Vhttp://pbs.twimg.com/profile_images/2052557154/DSC00753_2_normal.JPG
p636
sg104
Nsg105
I01
sg221
Vhttps://pbs.twimg.com/profile_banners/130839325/1398879787
p637
sg106
Vhttp://pbs.twimg.com/profile_background_images/603674541/zsa4thhwf8c9yryjqgim.jpeg
p638
sg61
Vlimouscious
p639
sg75
Ven
p640
sg110
I00
sg111
I26
sg63
VFarida Limo
p641
sg113
Nsg18
Nsg83
VThu Apr 08 13:41:06 +0000 2010
p642
sg116
I00
sg117
VNairobi
p643
sg119
I00
sg120
I00
sg121
I00
sa(dp644
g2
Nsg3
I01
sg4
I00
sg5
I65242320
sg6
Vhttps://pbs.twimg.com/profile_background_images/252963771/Twitter_Background-1_copy.jpg
p645
sg8
I00
sg9
V333333
p646
sg11
Nsg12
Vhttps://pbs.twimg.com/profile_images/1096044411/Kenya-Unity_normal.jpg
p647
sg14
VF4F7C6
p648
sg16
(dp649
g18
(dp650
g20
(lp651
(dp652
g18
Vhttp://t.co/f7A2UjbvFA
p653
sg24
(lp654
I0
aI22
asg26
Vhttp://www.tribe-hotel.com
p655
sg28
Vtribe-hotel.com
p656
sassg30
(dp657
g20
(lp658
sssg33
I6213
sg34
VA89432
p659
sg36
V65242320
p660
sg38
V000000
p661
sg40
I100
sg41
(dp662
g75
Ven
p663
sg72
I00
sg16
(dp664
g54
(lp665
sg56
(lp666
sg65
(lp667
(dp668
g24
(lp669
I45
aI54
asg45
Vthankyou
p670
sa(dp671
g24
(lp672
I55
aI68
asg45
Vlovelypeople
p673
sa(dp674
g24
(lp675
I69
aI78
asg45
Vgreatday
p676
sa(dp677
g24
(lp678
I79
aI91
asg45
Vafricamagic
p679
sa(dp680
g24
(lp681
I92
aI107
asg45
Vpenthousesuite
p682
sasg20
(lp683
ssg43
Nsg44
I00
sg45
VMashariki Mix on set at Tribe!!\u000aAfrica Magic\u000a#thankyou #lovelypeople #greatday #africamagic #penthousesuite
p684
sg83
VSun Jun 08 14:45:17 +0000 2014
p685
sg51
I00
sg85
Nsg52
Nsg86
Nsg49
V<a href="http://www.facebook.com/twitter" rel="nofollow">Facebook</a>
p686
sg47
Nsg68
Nsg36
V475649773958365184
p687
sg89
Nsg70
I1
sg90
Nsg5
I475649773958365184
sg48
I0
sg71
Nssg93
I00
sg94
I10800
sg95
I3990
sg30
VTribe was conceived from one simple belief. We coexist on a single planet and there is only one tribe that matters - Humankind. \u000aONE PLANET ONE TRIBE
p688
sg97
I5052
sg98
VNairobi, Kenya
p689
sg100
V0084B4
p690
sg102
Vhttp://pbs.twimg.com/profile_images/1096044411/Kenya-Unity_normal.jpg
p691
sg104
Nsg105
I01
sg221
Vhttps://pbs.twimg.com/profile_banners/65242320/1395125238
p692
sg106
Vhttp://pbs.twimg.com/profile_background_images/252963771/Twitter_Background-1_copy.jpg
p693
sg61
VTribeHotelKenya
p694
sg75
Ven
p695
sg110
I00
sg111
I90
sg63
VTribe Hotel Kenya 
p696
sg113
Nsg18
Vhttp://t.co/f7A2UjbvFA
p697
sg83
VThu Aug 13 02:15:08 +0000 2009
p698
sg116
I00
sg117
VNairobi
p699
sg119
I00
sg120
I00
sg121
I00
sa.