(lp0
(dp1
Vfollow_request_sent
p2
NsVprofile_use_background_image
p3
I01
sVdefault_profile_image
p4
I00
sVid
p5
I314759826
sVprofile_background_image_url_https
p6
Vhttps://abs.twimg.com/images/themes/theme1/bg.png
p7
sVverified
p8
I00
sVprofile_text_color
p9
V333333
p10
sVmuting
p11
NsVprofile_image_url_https
p12
Vhttps://pbs.twimg.com/profile_images/467375418027540480/-8k4fEoD_normal.jpeg
p13
sVprofile_sidebar_fill_color
p14
VDDEEF6
p15
sVentities
p16
(dp17
Vurl
p18
(dp19
Vurls
p20
(lp21
(dp22
g18
Vhttp://t.co/YVl0dsKcSx
p23
sVindices
p24
(lp25
I0
aI22
asVexpanded_url
p26
Vhttp://montenelectronics.webs.com
p27
sVdisplay_url
p28
Vmontenelectronics.webs.com
p29
sassVdescription
p30
(dp31
g20
(lp32
sssVfollowers_count
p33
I15
sVprofile_sidebar_border_color
p34
VC0DEED
p35
sVid_str
p36
V314759826
p37
sVprofile_background_color
p38
VC0DEED
p39
sVlisted_count
p40
I0
sVstatus
p41
(dp42
Vlang
p43
Ven
p44
sVfavorited
p45
I00
sg16
(dp46
Vsymbols
p47
(lp48
sVuser_mentions
p49
(lp50
(dp51
g5
I2562783953
sg24
(lp52
I0
aI11
asg36
V2562783953
p53
sVscreen_name
p54
VDoulciTeam
p55
sVname
p56
VDoulCi Team
p57
sa(dp58
g5
I55701417
sg24
(lp59
I31
aI41
asg36
V55701417
p60
sg54
Vragemasta
p61
sg56
Vragemasta
p62
sasVhashtags
p63
(lp64
sg20
(lp65
ssVcontributors
p66
NsVtruncated
p67
I00
sVtext
p68
V@DoulciTeam I have been trying @ragemasta server for sometime but it won't work,they try,you're the BEST am waiting the software
p69
sVcreated_at
p70
VFri Jun 06 05:17:05 +0000 2014
p71
sVretweeted
p72
I00
sVin_reply_to_status_id_str
p73
NsVcoordinates
p74
NsVin_reply_to_user_id_str
p75
V2562783953
p76
sVsource
p77
V<a href="http://twitter.com/download/iphone" rel="nofollow">Twitter for iPhone</a>
p78
sVin_reply_to_status_id
p79
NsVin_reply_to_screen_name
p80
VDoulciTeam
p81
sg36
V474782002575867905
p82
sVplace
p83
NsVretweet_count
p84
I0
sVgeo
p85
Nsg5
I474782002575867905
sVfavorite_count
p86
I1
sVin_reply_to_user_id
p87
I2562783953
ssVis_translation_enabled
p88
I00
sVutc_offset
p89
I10800
sVstatuses_count
p90
I61
sg30
V
p91
sVfriends_count
p92
I101
sVlocation
p93
VNairobi,Kenya
p94
sVprofile_link_color
p95
V0084B4
p96
sVprofile_image_url
p97
Vhttp://pbs.twimg.com/profile_images/467375418027540480/-8k4fEoD_normal.jpeg
p98
sVfollowing
p99
NsVgeo_enabled
p100
I01
sVprofile_banner_url
p101
Vhttps://pbs.twimg.com/profile_banners/314759826/1400223877
p102
sVprofile_background_image_url
p103
Vhttp://abs.twimg.com/images/themes/theme1/bg.png
p104
sg54
Vpmongute
p105
sg43
Ven
p106
sVprofile_background_tile
p107
I00
sVfavourites_count
p108
I40
sg56
Vmonten
p109
sVnotifications
p110
Nsg18
Vhttp://t.co/YVl0dsKcSx
p111
sg70
VFri Jun 10 19:23:10 +0000 2011
p112
sVcontributors_enabled
p113
I00
sVtime_zone
p114
VNairobi
p115
sVprotected
p116
I00
sVdefault_profile
p117
I01
sVis_translator
p118
I00
sa(dp119
g2
Nsg3
I01
sg4
I00
sg5
I1172135502
sg6
Vhttps://abs.twimg.com/images/themes/theme1/bg.png
p120
sg8
I00
sg9
V333333
p121
sg11
Nsg12
Vhttps://pbs.twimg.com/profile_images/3243838919/a653e251a91a73a2c1c37e214aab071e_normal.jpeg
p122
sg14
VDDEEF6
p123
sg16
(dp124
g30
(dp125
g20
(lp126
sssg33
I604
sg34
VC0DEED
p127
sg36
V1172135502
p128
sg38
VC0DEED
p129
sg40
I0
sg41
(dp130
g66
Nsg67
I00
sg68
VRT @Aud__rey_: Lmao "@collo_loki: ROTFL!! RT @anto_hitler: LOOL @NightRunner_: Sasa wacha tuone Baada ya muosho mmoja tu! #TheTrend"
p131
sg79
Nsg5
I474999441343381504
sg86
I0
sg77
V<a href="http://twitter.com/download/android" rel="nofollow">Twitter for Android</a>
p132
sg72
I00
sg74
Nsg16
(dp133
g47
(lp134
sg49
(lp135
(dp136
g5
I514560730
sg24
(lp137
I3
aI13
asg36
V514560730
p138
sg54
VAud__rey_
p139
sg56
V'Spermd@won'
p140
sa(dp141
g5
I93602794
sg24
(lp142
I21
aI32
asg36
V93602794
p143
sg54
Vcollo_loki
p144
sg56
VPAIN bleeds PROGRESS
p145
sa(dp146
g5
I764340265
sg24
(lp147
I45
aI57
asg36
V764340265
p148
sg54
Vanto_hitler
p149
sg56
VKoo Koo Dance
p150
sa(dp151
g5
I588992831
sg24
(lp152
I64
aI77
asg36
V588992831
p153
sg54
VNightRunner_
p154
sg56
VI FOLLOW BACK \u005co/!
p155
sasg63
(lp156
(dp157
g24
(lp158
I122
aI131
asg68
VTheTrend
p159
sasg20
(lp160
ssg80
Nsg36
V474999441343381504
p161
sg84
I4
sg87
Nsg45
I00
sVretweeted_status
p162
(dp163
g43
Ven
p164
sg45
I00
sg16
(dp165
g47
(lp166
sg49
(lp167
(dp168
g5
I93602794
sg24
(lp169
I6
aI17
asg36
V93602794
p170
sg54
Vcollo_loki
p171
sg56
VPAIN bleeds PROGRESS
p172
sa(dp173
g5
I764340265
sg24
(lp174
I30
aI42
asg36
V764340265
p175
sg54
Vanto_hitler
p176
sg56
VKoo Koo Dance
p177
sa(dp178
g5
I588992831
sg24
(lp179
I49
aI62
asg36
V588992831
p180
sg54
VNightRunner_
p181
sg56
VI FOLLOW BACK \u005co/!
p182
sasg63
(lp183
(dp184
g24
(lp185
I107
aI116
asg68
VTheTrend
p186
sasg20
(lp187
ssg66
Nsg67
I00
sg68
VLmao "@collo_loki: ROTFL!! RT @anto_hitler: LOOL @NightRunner_: Sasa wacha tuone Baada ya muosho mmoja tu! #TheTrend"
p188
sg70
VFri Jun 06 19:29:14 +0000 2014
p189
sg72
I00
sg73
Nsg74
Nsg75
Nsg77
V<a href="http://twitter.com/download/android" rel="nofollow">Twitter for Android</a>
p190
sg79
Nsg80
Nsg36
V474996456777326592
p191
sg83
Nsg84
I4
sg85
Nsg5
I474996456777326592
sg86
I0
sg87
Nssg85
Nsg75
Nsg43
Ven
p192
sg70
VFri Jun 06 19:41:06 +0000 2014
p193
sg73
Nsg83
Nssg88
I00
sg89
I10800
sg90
I1226
sg30
VIm ambitious , self-made , love reading and travelling. #manunited die-hard
p194
sg92
I619
sg93
VNairobi
p195
sg95
V0084B4
p196
sg97
Vhttp://pbs.twimg.com/profile_images/3243838919/a653e251a91a73a2c1c37e214aab071e_normal.jpeg
p197
sg99
Nsg100
I01
sg103
Vhttp://abs.twimg.com/images/themes/theme1/bg.png
p198
sg54
Vphil_kim89
p199
sg43
Ven
p200
sg107
I00
sg108
I21
sg56
Vphilip kimanzi
p201
sg110
Nsg18
Nsg70
VTue Feb 12 14:33:40 +0000 2013
p202
sg113
I00
sg114
VBaghdad
p203
sg116
I00
sg117
I01
sg118
I00
sa(dp204
g2
Nsg3
I01
sg4
I00
sg5
I237204991
sg6
Vhttps://pbs.twimg.com/profile_background_images/858888541/10fcf648f78d361317688e55c397f406.jpeg
p205
sg8
I00
sg9
V333333
p206
sg11
Nsg12
Vhttps://pbs.twimg.com/profile_images/450569789954473984/wQ42F11F_normal.jpeg
p207
sg14
VEFEFEF
p208
sg16
(dp209
g30
(dp210
g20
(lp211
sssg33
I308
sg34
VFFFFFF
p212
sg36
V237204991
p213
sg38
V1C1A1F
p214
sg40
I1
sg41
(dp215
g66
Nsg67
I00
sg68
VRT @MEsipisu: President @UKenyatta with Hon. Dalmas Otieno and his wife Mrs Jane Otieno at daughter's Eflyne Otieno's burial http://t.co/BP\u2026
p216
sg79
Nsg5
I475256488374435841
sg86
I0
sg77
V<a href="https://mobile.twitter.com" rel="nofollow">Mobile Web (M2)</a>
p217
sg72
I00
sg74
Nsg16
(dp218
g47
(lp219
sg49
(lp220
(dp221
g5
I1667050489
sg24
(lp222
I3
aI12
asg36
V1667050489
p223
sg54
VMEsipisu
p224
sg56
VManoah Esipisu
p225
sa(dp226
g5
I183165874
sg24
(lp227
I24
aI34
asg36
V183165874
p228
sg54
VUKenyatta
p229
sg56
VUhuru Kenyatta
p230
sasg63
(lp231
sg20
(lp232
sVmedia
p233
(lp234
(dp235
Vsource_status_id_str
p236
V475254973287370752
p237
sg26
Vhttp://twitter.com/MEsipisu/status/475254973287370752/photo/1
p238
sg28
Vpic.twitter.com/BPK5PwLvkM
p239
sg18
Vhttp://t.co/BPK5PwLvkM
p240
sVmedia_url_https
p241
Vhttps://pbs.twimg.com/media/Bphx4TVIUAAgETI.jpg
p242
sVsource_status_id
p243
I475254973287370752
sg36
V475254972763099136
p244
sVsizes
p245
(dp246
Vsmall
p247
(dp248
Vh
p249
I252
sVresize
p250
Vfit
p251
sVw
p252
I340
ssVlarge
p253
(dp254
g249
I760
sg250
Vfit
p255
sg252
I1024
ssVmedium
p256
(dp257
g249
I445
sg250
Vfit
p258
sg252
I600
ssVthumb
p259
(dp260
g249
I150
sg250
Vcrop
p261
sg252
I150
sssg24
(lp262
I139
aI140
asVtype
p263
Vphoto
p264
sg5
I475254972763099136
sVmedia_url
p265
Vhttp://pbs.twimg.com/media/Bphx4TVIUAAgETI.jpg
p266
sassg80
Nsg36
V475256488374435841
p267
sg84
I7
sg87
Nsg45
I00
sg162
(dp268
g66
Nsg67
I00
sg68
VPresident @UKenyatta with Hon. Dalmas Otieno and his wife Mrs Jane Otieno at daughter's Eflyne Otieno's burial http://t.co/BPK5PwLvkM
p269
sg79
Nsg5
I475254973287370752
sg86
I2
sg77
V<a href="http://www.twitter.com" rel="nofollow">Twitter for BlackBerry</a>
p270
sg72
I00
sg74
Nsg16
(dp271
g47
(lp272
sg49
(lp273
(dp274
g5
I183165874
sg24
(lp275
I10
aI20
asg36
V183165874
p276
sg54
VUKenyatta
p277
sg56
VUhuru Kenyatta
p278
sasg63
(lp279
sg20
(lp280
sg233
(lp281
(dp282
g26
Vhttp://twitter.com/MEsipisu/status/475254973287370752/photo/1
p283
sg28
Vpic.twitter.com/BPK5PwLvkM
p284
sg18
Vhttp://t.co/BPK5PwLvkM
p285
sg241
Vhttps://pbs.twimg.com/media/Bphx4TVIUAAgETI.jpg
p286
sg36
V475254972763099136
p287
sg245
(dp288
g247
(dp289
g249
I252
sg250
Vfit
p290
sg252
I340
ssg253
(dp291
g249
I760
sg250
Vfit
p292
sg252
I1024
ssg256
(dp293
g249
I445
sg250
Vfit
p294
sg252
I600
ssg259
(dp295
g249
I150
sg250
Vcrop
p296
sg252
I150
sssg24
(lp297
I111
aI133
asg263
Vphoto
p298
sg5
I475254972763099136
sg265
Vhttp://pbs.twimg.com/media/Bphx4TVIUAAgETI.jpg
p299
sassg80
Nsg36
V475254973287370752
p300
sg84
I7
sg87
Nsg45
I00
sg85
Nsg75
NsVpossibly_sensitive
p301
I00
sg43
Ven
p302
sg70
VSat Jun 07 12:36:30 +0000 2014
p303
sg73
Nsg83
Nssg85
Nsg75
Nsg301
I00
sg43
Ven
p304
sg70
VSat Jun 07 12:42:31 +0000 2014
p305
sg73
Nsg83
Nssg88
I00
sg89
I-25200
sg90
I2844
sg30
Vrugby spy| love watches \u000a  ask the duchess|The History of Art Scholar|student of Da Vinci and Pablo Piccaso.|ten.ten.twelve
p306
sg92
I624
sg93
VNairobi
p307
sg95
VB72FED
p308
sg97
Vhttp://pbs.twimg.com/profile_images/450569789954473984/wQ42F11F_normal.jpeg
p309
sg99
Nsg100
I01
sg101
Vhttps://pbs.twimg.com/profile_banners/237204991/1392985267
p310
sg103
Vhttp://pbs.twimg.com/profile_background_images/858888541/10fcf648f78d361317688e55c397f406.jpeg
p311
sg54
VBlackHeadRam
p312
sg43
Ven
p313
sg107
I01
sg108
I117
sg56
VMacharia Thang'wa
p314
sg110
Nsg18
Nsg70
VWed Jan 12 09:32:23 +0000 2011
p315
sg113
I00
sg114
VPacific Time (US & Canada)
p316
sg116
I00
sg117
I00
sg118
I00
sa.