(lp0
(dp1
Vfollow_request_sent
p2
NsVprofile_use_background_image
p3
I01
sVdefault_profile_image
p4
I00
sVid
p5
I501742442
sVprofile_background_image_url_https
p6
Vhttps://abs.twimg.com/images/themes/theme1/bg.png
p7
sVverified
p8
I00
sVprofile_text_color
p9
V333333
p10
sVmuting
p11
NsVprofile_image_url_https
p12
Vhttps://pbs.twimg.com/profile_images/1857449954/40979_1419250081543_1241389925_31145093_697410_n_1__normal.jpg
p13
sVprofile_sidebar_fill_color
p14
VDDEEF6
p15
sVentities
p16
(dp17
Vurl
p18
(dp19
Vurls
p20
(lp21
(dp22
g18
Vhttp://t.co/teFMK4bKD7
p23
sVindices
p24
(lp25
I0
aI22
asVexpanded_url
p26
Vhttp://www.kaliti.com
p27
sVdisplay_url
p28
Vkaliti.com
p29
sassVdescription
p30
(dp31
g20
(lp32
sssVfollowers_count
p33
I23
sVprofile_sidebar_border_color
p34
VC0DEED
p35
sVid_str
p36
V501742442
p37
sVprofile_background_color
p38
VC0DEED
p39
sVlisted_count
p40
I0
sVstatus
p41
(dp42
Vlang
p43
Ven
p44
sVfavorited
p45
I00
sg16
(dp46
Vsymbols
p47
(lp48
sVuser_mentions
p49
(lp50
(dp51
g5
I2459234173
sg24
(lp52
I0
aI14
asg36
V2459234173
p53
sVscreen_name
p54
Vcelestine1986
p55
sVname
p56
Vcelestine moraa 
p57
sasVhashtags
p58
(lp59
sg20
(lp60
ssVcontributors
p61
NsVtruncated
p62
I00
sVtext
p63
V@celestine1986 Diesel to Mara North, wild wind safaris
p64
sVcreated_at
p65
VTue May 13 05:51:33 +0000 2014
p66
sVretweeted
p67
I00
sVin_reply_to_status_id_str
p68
V466092878544896001
p69
sVcoordinates
p70
NsVin_reply_to_user_id_str
p71
V2459234173
p72
sVsource
p73
V<a href="http://twitter.com/download/android" rel="nofollow">Twitter for Android</a>
p74
sVin_reply_to_status_id
p75
I466092878544896001
sVin_reply_to_screen_name
p76
Vcelestine1986
p77
sg36
V466093369437859840
p78
sVplace
p79
NsVretweet_count
p80
I0
sVgeo
p81
Nsg5
I466093369437859840
sVfavorite_count
p82
I0
sVin_reply_to_user_id
p83
I2459234173
ssVis_translation_enabled
p84
I00
sVutc_offset
p85
NsVstatuses_count
p86
I31
sg30
V
p87
sVfriends_count
p88
I67
sVlocation
p89
Vnairobi, kenya
p90
sVprofile_link_color
p91
V0084B4
p92
sVprofile_image_url
p93
Vhttp://pbs.twimg.com/profile_images/1857449954/40979_1419250081543_1241389925_31145093_697410_n_1__normal.jpg
p94
sVfollowing
p95
NsVgeo_enabled
p96
I01
sVprofile_background_image_url
p97
Vhttp://abs.twimg.com/images/themes/theme1/bg.png
p98
sg54
VGeorgeKaliti
p99
sg43
Ven
p100
sVprofile_background_tile
p101
I00
sVfavourites_count
p102
I5
sg56
Vgeorge
p103
sVnotifications
p104
Nsg18
Vhttp://t.co/teFMK4bKD7
p105
sg65
VFri Feb 24 12:45:59 +0000 2012
p106
sVcontributors_enabled
p107
I00
sVtime_zone
p108
NsVprotected
p109
I00
sVdefault_profile
p110
I01
sVis_translator
p111
I00
sa(dp112
g2
Nsg3
I01
sg4
I00
sg5
I55154118
sg6
Vhttps://pbs.twimg.com/profile_background_images/431756429691609088/7l6RJ5rx.jpeg
p113
sg8
I00
sg9
V696545
p114
sg11
Nsg12
Vhttps://pbs.twimg.com/profile_images/447250461494902784/KweXIi0K_normal.jpeg
p115
sg14
V262626
p116
sg16
(dp117
g18
(dp118
g20
(lp119
(dp120
g18
Vhttp://t.co/qvumqz8xMA
p121
sg24
(lp122
I0
aI22
asg26
Vhttp://twitter.com/Koitelel
p123
sg28
Vtwitter.com/Koitelel
p124
sassg30
(dp125
g20
(lp126
sssg33
I243
sg34
V4D4A33
p127
sg36
V55154118
p128
sg38
V091304
p129
sg40
I5
sg41
(dp130
g43
Ven
p131
sg45
I00
sg16
(dp132
g47
(lp133
sg49
(lp134
(dp135
g5
I25979455
sg24
(lp136
I0
aI12
asg36
V25979455
p137
sg54
Vdailynation
p138
sg56
VDaily Nation
p139
sasg58
(lp140
sg20
(lp141
ssg61
Nsg62
I00
sg63
V@dailynation it's already late.  Let's hope it will not be TOO LATE.
p142
sg65
VThu Apr 24 04:26:53 +0000 2014
p143
sg67
I00
sg68
V459181303594639361
p144
sg70
Nsg71
V25979455
p145
sg73
V<a href="http://twitter.com/download/android" rel="nofollow">Twitter for Android</a>
p146
sg75
I459181303594639361
sg76
Vdailynation
p147
sg36
V459186692386459648
p148
sg79
Nsg80
I0
sg81
Nsg5
I459186692386459648
sg82
I0
sg83
I25979455
ssg84
I00
sg85
I10800
sg86
I296
sg30
VLeadership, Management & Governance Consultant.
p149
sg88
I563
sg89
VNairobi, Kenya
p150
sg91
V7D7D7D
p151
sg93
Vhttp://pbs.twimg.com/profile_images/447250461494902784/KweXIi0K_normal.jpeg
p152
sg95
Nsg96
I01
sVprofile_banner_url
p153
Vhttps://pbs.twimg.com/profile_banners/55154118/1391773850
p154
sg97
Vhttp://pbs.twimg.com/profile_background_images/431756429691609088/7l6RJ5rx.jpeg
p155
sg54
Volesitau
p156
sg43
Ven
p157
sg101
I00
sg102
I44
sg56
VPhilip Koitelel
p158
sg104
Nsg18
Vhttp://t.co/qvumqz8xMA
p159
sg65
VThu Jul 09 05:33:46 +0000 2009
p160
sg107
I00
sg108
VNairobi
p161
sg109
I00
sg110
I00
sg111
I00
sa(dp162
g2
Nsg3
I01
sg4
I00
sg5
I344979024
sg6
Vhttps://pbs.twimg.com/profile_background_images/324715850/logo10.jpg
p163
sg8
I00
sg9
V333333
p164
sg11
Nsg12
Vhttps://pbs.twimg.com/profile_images/1523737133/Helmet_normal.jpg
p165
sg14
VDDEEF6
p166
sg16
(dp167
g18
(dp168
g20
(lp169
(dp170
g18
Vhttp://t.co/oFZ30JDi
p171
sg24
(lp172
I0
aI20
asg26
Vhttp://www.secuventuresecurity.com
p173
sg28
Vsecuventuresecurity.com
p174
sassg30
(dp175
g20
(lp176
(dp177
g18
Vhttps://t.co/3NwP6D3N70
p178
sg24
(lp179
I64
aI87
asg26
Vhttps://si0.twimg.com/profile_images/1523737133/Helmet.Kenya.The
p180
sg28
Vsi0.twimg.com/profile_images\u2026
p181
sasssg33
I294
sg34
VC0DEED
p182
sg36
V344979024
p183
sg38
VC0DEED
p184
sg40
I0
sg41
(dp185
g61
Nsg62
I00
sg63
VMachakos peoples park! http://t.co/hzXswYGwnS
p186
sg75
Nsg5
I473025615353094145
sg82
I0
sg73
V<a href="http://www.samsungmobile.com" rel="nofollow">Samsung Mobile</a>
p187
sg67
I00
sg70
Nsg16
(dp188
g47
(lp189
sg49
(lp190
sg58
(lp191
sg20
(lp192
(dp193
g18
Vhttp://t.co/hzXswYGwnS
p194
sg24
(lp195
I23
aI45
asg26
Vhttp://twitpic.com/e57fpl
p196
sg28
Vtwitpic.com/e57fpl
p197
sassg76
Nsg36
V473025615353094145
p198
sg80
I0
sg83
Nsg45
I00
sg81
Nsg71
NsVpossibly_sensitive
p199
I00
sg43
Ven
p200
sg65
VSun Jun 01 08:57:49 +0000 2014
p201
sg68
Nsg79
Nssg84
I00
sg85
I10800
sg86
I1170
sg30
VNothing but the best intergrated security solutions provider in https://t.co/3NwP6D3N70 better Link with your Security!
p202
sg88
I1265
sg89
VNairobi,Kenya
p203
sg91
V0084B4
p204
sg93
Vhttp://pbs.twimg.com/profile_images/1523737133/Helmet_normal.jpg
p205
sg95
Nsg96
I01
sg153
Vhttps://pbs.twimg.com/profile_banners/344979024/1370530375
p206
sg97
Vhttp://pbs.twimg.com/profile_background_images/324715850/logo10.jpg
p207
sg54
Vsecuventure
p208
sg43
Ven
p209
sg101
I00
sg102
I11
sg56
VSecuventure Security
p210
sg104
Nsg18
Vhttp://t.co/oFZ30JDi
p211
sg65
VFri Jul 29 21:53:21 +0000 2011
p212
sg107
I00
sg108
VBaghdad
p213
sg109
I00
sg110
I00
sg111
I00
sa.