(lp0
(dp1
Vfollow_request_sent
p2
NsVprofile_use_background_image
p3
I01
sVdefault_profile_image
p4
I00
sVid
p5
I237241738
sVprofile_background_image_url_https
p6
Vhttps://abs.twimg.com/images/themes/theme10/bg.gif
p7
sVverified
p8
I00
sVprofile_text_color
p9
V3D1957
p10
sVmuting
p11
NsVprofile_image_url_https
p12
Vhttps://pbs.twimg.com/profile_images/1796947195/MOMANYI_normal.jpg
p13
sVprofile_sidebar_fill_color
p14
V7AC3EE
p15
sVentities
p16
(dp17
Vdescription
p18
(dp19
Vurls
p20
(lp21
sssVfollowers_count
p22
I8893
sVprofile_sidebar_border_color
p23
V65B0DA
p24
sVid_str
p25
V237241738
p26
sVprofile_background_color
p27
V642D8B
p28
sVlisted_count
p29
I27
sVstatus
p30
(dp31
Vcontributors
p32
NsVtruncated
p33
I00
sVtext
p34
VKisii leaders in rare unity ahead of Uhuru visit http://t.co/fpM82Qhzca via @capitalfm_kenya
p35
sVin_reply_to_status_id
p36
Nsg5
I475292543882522624
sVfavorite_count
p37
I0
sVsource
p38
V<a href="https://dev.twitter.com/docs/tfw" rel="nofollow">Twitter for Websites</a>
p39
sVretweeted
p40
I00
sVcoordinates
p41
Nsg16
(dp42
Vsymbols
p43
(lp44
sVuser_mentions
p45
(lp46
(dp47
g5
I92731878
sVindices
p48
(lp49
I76
aI92
asg25
V92731878
p50
sVscreen_name
p51
VCapitalFM_kenya
p52
sVname
p53
VCapital FM Kenya
p54
sasVhashtags
p55
(lp56
sg20
(lp57
(dp58
Vurl
p59
Vhttp://t.co/fpM82Qhzca
p60
sg48
(lp61
I49
aI71
asVexpanded_url
p62
Vhttp://www.capitalfm.co.ke/news/2014/06/kisii-leaders-in-rare-unity-ahead-of-uhuru-visit/
p63
sVdisplay_url
p64
Vcapitalfm.co.ke/news/2014/06/k\u2026
p65
sassVin_reply_to_screen_name
p66
Nsg25
V475292543882522624
p67
sVretweet_count
p68
I0
sVin_reply_to_user_id
p69
NsVfavorited
p70
I00
sVgeo
p71
NsVin_reply_to_user_id_str
p72
NsVpossibly_sensitive
p73
I00
sVlang
p74
Ven
p75
sVcreated_at
p76
VSat Jun 07 15:05:47 +0000 2014
p77
sVin_reply_to_status_id_str
p78
NsVplace
p79
NssVis_translation_enabled
p80
I00
sVutc_offset
p81
NsVstatuses_count
p82
I6872
sg18
VNews Editor, @CapitalFM_Kenya
p83
sVfriends_count
p84
I6581
sVlocation
p85
VNAIROBI, KENYA 
p86
sVprofile_link_color
p87
VFF0000
p88
sVprofile_image_url
p89
Vhttp://pbs.twimg.com/profile_images/1796947195/MOMANYI_normal.jpg
p90
sVfollowing
p91
NsVgeo_enabled
p92
I01
sVprofile_background_image_url
p93
Vhttp://abs.twimg.com/images/themes/theme10/bg.gif
p94
sg51
Vmomanyibernard
p95
sg74
Ven
p96
sVprofile_background_tile
p97
I01
sVfavourites_count
p98
I14
sg53
VBernard Momanyi
p99
sVnotifications
p100
Nsg59
Nsg76
VWed Jan 12 11:59:12 +0000 2011
p101
sVcontributors_enabled
p102
I00
sVtime_zone
p103
NsVprotected
p104
I00
sVdefault_profile
p105
I00
sVis_translator
p106
I00
sa.