(lp0
(dp1
Vfollow_request_sent
p2
NsVprofile_use_background_image
p3
I01
sVdefault_profile_image
p4
I00
sVid
p5
I364197896
sVprofile_background_image_url_https
p6
Vhttps://abs.twimg.com/images/themes/theme12/bg.gif
p7
sVverified
p8
I00
sVprofile_text_color
p9
V0C3E53
p10
sVmuting
p11
NsVprofile_image_url_https
p12
Vhttps://pbs.twimg.com/profile_images/436409009877172225/POLigoqj_normal.jpeg
p13
sVprofile_sidebar_fill_color
p14
VFFF7CC
p15
sVentities
p16
(dp17
Vdescription
p18
(dp19
Vurls
p20
(lp21
sssVfollowers_count
p22
I416
sVprofile_sidebar_border_color
p23
VF2E195
p24
sVid_str
p25
V364197896
p26
sVprofile_background_color
p27
VBADFCD
p28
sVlisted_count
p29
I1
sVstatus
p30
(dp31
Vlang
p32
Ven
p33
sVfavorited
p34
I00
sg16
(dp35
Vsymbols
p36
(lp37
sVuser_mentions
p38
(lp39
sVhashtags
p40
(lp41
sg20
(lp42
ssVcontributors
p43
NsVtruncated
p44
I00
sVtext
p45
VI am a Feminist. I've been female for a long time now. I'd be stupid not to be on my own side.......M.A
p46
sVcreated_at
p47
VFri Jun 06 12:19:36 +0000 2014
p48
sVretweeted
p49
I00
sVin_reply_to_status_id_str
p50
NsVcoordinates
p51
NsVin_reply_to_user_id_str
p52
NsVsource
p53
V<a href="http://www.facebook.com/twitter" rel="nofollow">Facebook</a>
p54
sVin_reply_to_status_id
p55
NsVin_reply_to_screen_name
p56
Nsg25
V474888333899096064
p57
sVplace
p58
NsVretweet_count
p59
I0
sVgeo
p60
Nsg5
I474888333899096064
sVfavorite_count
p61
I0
sVin_reply_to_user_id
p62
NssVis_translation_enabled
p63
I00
sVutc_offset
p64
I10800
sVstatuses_count
p65
I395
sg18
VShe's unfolding.
p66
sVfriends_count
p67
I2000
sVlocation
p68
VNairobi, Kenya
p69
sVprofile_link_color
p70
VFF0000
p71
sVprofile_image_url
p72
Vhttp://pbs.twimg.com/profile_images/436409009877172225/POLigoqj_normal.jpeg
p73
sVfollowing
p74
NsVgeo_enabled
p75
I01
sVprofile_banner_url
p76
Vhttps://pbs.twimg.com/profile_banners/364197896/1363070394
p77
sVprofile_background_image_url
p78
Vhttp://abs.twimg.com/images/themes/theme12/bg.gif
p79
sVscreen_name
p80
VWairimuW
p81
sg32
Ven
p82
sVprofile_background_tile
p83
I00
sVfavourites_count
p84
I49
sVname
p85
VWairimu Wanjiku
p86
sVnotifications
p87
NsVurl
p88
Nsg47
VMon Aug 29 11:11:46 +0000 2011
p89
sVcontributors_enabled
p90
I00
sVtime_zone
p91
VNairobi
p92
sVprotected
p93
I00
sVdefault_profile
p94
I00
sVis_translator
p95
I00
sa(dp96
g2
Nsg3
I01
sg4
I00
sg5
I99327914
sg6
Vhttps://pbs.twimg.com/profile_background_images/447370936920965120/MT8buJxl.jpeg
p97
sg8
I00
sg9
V333333
p98
sg11
Nsg12
Vhttps://pbs.twimg.com/profile_images/447299428739604480/OWqqGTaa_normal.jpeg
p99
sg14
VDDEEF6
p100
sg16
(dp101
g88
(dp102
g20
(lp103
(dp104
g88
Vhttp://t.co/dmOnExY9Oz
p105
sVindices
p106
(lp107
I0
aI22
asVexpanded_url
p108
Vhttp://twitter.com/agarther_dyanne
p109
sVdisplay_url
p110
Vtwitter.com/agarther_dyanne
p111
sassg18
(dp112
g20
(lp113
sssg22
I1116
sg23
V000000
p114
sg25
V99327914
p115
sg27
V5E0AAD
p116
sg29
I12
sg30
(dp117
g32
Ven
p118
sg34
I00
sg16
(dp119
g36
(lp120
sg38
(lp121
(dp122
g5
I115345705
sg106
(lp123
I0
aI12
asg25
V115345705
p124
sg80
VImThatNword
p125
sg85
VSimon Maingi
p126
sasg40
(lp127
(dp128
g106
(lp129
I44
aI53
asg45
Vshitting
p130
sasg20
(lp131
ssg43
Nsg44
I00
sg45
V@ImThatNword Start to like the stinch??\u000aYou #shitting me right about now...
p132
sg47
VFri Jun 06 17:53:08 +0000 2014
p133
sg49
I00
sg50
V474941231277944832
p134
sg51
(dp135
Vtype
p136
VPoint
p137
sg51
(lp138
F36.9922538
aF-1.1297423
assg52
V115345705
p139
sg53
V<a href="http://twitter.com/download/android" rel="nofollow">Twitter for Android</a>
p140
sg55
I474941231277944832
sg56
VImThatNword
p141
sg25
V474972271980064768
p142
sg58
(dp143
Vfull_name
p144
VKenya
p145
sg88
Vhttps://api.twitter.com/1.1/geo/id/17ad6a68301cd28b.json
p146
sVcountry
p147
VKenya
p148
sVplace_type
p149
Vcountry
p150
sVbounding_box
p151
(dp152
g136
VPolygon
p153
sg51
(lp154
(lp155
(lp156
F33.8904683840002
aF-4.67750416499992
aa(lp157
F41.8850191650002
aF-4.67750416499992
aa(lp158
F41.8850191650002
aF5.03037582260771
aa(lp159
F33.8904683840002
aF5.03037582260771
aaassVcontained_within
p160
(lp161
sVcountry_code
p162
VKE
p163
sVattributes
p164
(dp165
sg5
V17ad6a68301cd28b
p166
sg85
VKenya
p167
ssg59
I0
sg60
(dp168
g136
VPoint
p169
sg51
(lp170
F-1.1297423
aF36.9922538
assg5
I474972271980064768
sg61
I0
sg62
I115345705
ssg63
I00
sg64
I-18000
sg65
I6807
sg18
Vforever G. #instagram @agarther_dyanne
p171
sg67
I904
sg68
VKenya-Nairobi
p172
sg70
VCC3366
p173
sg72
Vhttp://pbs.twimg.com/profile_images/447299428739604480/OWqqGTaa_normal.jpeg
p174
sg74
Nsg75
I01
sg76
Vhttps://pbs.twimg.com/profile_banners/99327914/1398325588
p175
sg78
Vhttp://pbs.twimg.com/profile_background_images/447370936920965120/MT8buJxl.jpeg
p176
sg80
Vagarther_dyanne
p177
sg32
Ven
p178
sg83
I01
sg84
I152
sg85
VAgarther Gichaga
p179
sg87
Nsg88
Vhttp://t.co/dmOnExY9Oz
p180
sg47
VFri Dec 25 17:33:40 +0000 2009
p181
sg90
I00
sg91
VQuito
p182
sg93
I00
sg94
I00
sg95
I00
sa.