(lp0
(dp1
Vfollow_request_sent
p2
NsVprofile_use_background_image
p3
I01
sVdefault_profile_image
p4
I00
sVid
p5
I2360836070
sVprofile_background_image_url_https
p6
Vhttps://abs.twimg.com/images/themes/theme6/bg.gif
p7
sVverified
p8
I00
sVprofile_text_color
p9
V333333
p10
sVmuting
p11
NsVprofile_image_url_https
p12
Vhttps://pbs.twimg.com/profile_images/469830761856528384/UAN6J9cO_normal.jpeg
p13
sVprofile_sidebar_fill_color
p14
VA0C5C7
p15
sVentities
p16
(dp17
Vdescription
p18
(dp19
Vurls
p20
(lp21
sssVfollowers_count
p22
I522
sVprofile_sidebar_border_color
p23
V86A4A6
p24
sVid_str
p25
V2360836070
p26
sVprofile_background_color
p27
V709397
p28
sVlisted_count
p29
I0
sVstatus
p30
(dp31
Vcontributors
p32
NsVtruncated
p33
I00
sVtext
p34
Vthis Friday 2pm we are CELEBRATING OUR 1ST ANNIVERSARY.. KARIBU http://t.co/ID5ESQX7Eb
p35
sVin_reply_to_status_id
p36
Nsg5
I474215017534222338
sVfavorite_count
p37
I1
sVsource
p38
V<a href="http://twitter.com" rel="nofollow">Twitter Web Client</a>
p39
sVretweeted
p40
I00
sVcoordinates
p41
Nsg16
(dp42
Vsymbols
p43
(lp44
sVuser_mentions
p45
(lp46
sVhashtags
p47
(lp48
sg20
(lp49
sVmedia
p50
(lp51
(dp52
Vexpanded_url
p53
Vhttp://twitter.com/thepapclan/status/474215017534222338/photo/1
p54
sVdisplay_url
p55
Vpic.twitter.com/ID5ESQX7Eb
p56
sVurl
p57
Vhttp://t.co/ID5ESQX7Eb
p58
sVmedia_url_https
p59
Vhttps://pbs.twimg.com/media/BpTAAnGCEAA6QWA.jpg
p60
sg25
V474214977507561472
p61
sVsizes
p62
(dp63
Vsmall
p64
(dp65
Vh
p66
I480
sVresize
p67
Vfit
p68
sVw
p69
I339
ssVlarge
p70
(dp71
g66
I589
sg67
Vfit
p72
sg69
I417
ssVmedium
p73
(dp74
g66
I589
sg67
Vfit
p75
sg69
I417
ssVthumb
p76
(dp77
g66
I150
sg67
Vcrop
p78
sg69
I150
sssVindices
p79
(lp80
I64
aI86
asVtype
p81
Vphoto
p82
sg5
I474214977507561472
sVmedia_url
p83
Vhttp://pbs.twimg.com/media/BpTAAnGCEAA6QWA.jpg
p84
sassVin_reply_to_screen_name
p85
Nsg25
V474215017534222338
p86
sVretweet_count
p87
I0
sVin_reply_to_user_id
p88
NsVfavorited
p89
I00
sVgeo
p90
NsVin_reply_to_user_id_str
p91
NsVpossibly_sensitive
p92
I00
sVlang
p93
Ven
p94
sVcreated_at
p95
VWed Jun 04 15:44:05 +0000 2014
p96
sVin_reply_to_status_id_str
p97
NsVplace
p98
NssVis_translation_enabled
p99
I00
sVutc_offset
p100
NsVstatuses_count
p101
I138
sg18
VAn afternoon out-doors with great intelligent SPOKEN WORD POETRY and SWEET MELLOW VOICES from some of the greatest young vocalists and live bands.
p102
sVfriends_count
p103
I1712
sVlocation
p104
VNairobi
p105
sVprofile_link_color
p106
VFF3300
p107
sVprofile_image_url
p108
Vhttp://pbs.twimg.com/profile_images/469830761856528384/UAN6J9cO_normal.jpeg
p109
sVfollowing
p110
NsVgeo_enabled
p111
I01
sVprofile_banner_url
p112
Vhttps://pbs.twimg.com/profile_banners/2360836070/1400851027
p113
sVprofile_background_image_url
p114
Vhttp://abs.twimg.com/images/themes/theme6/bg.gif
p115
sVscreen_name
p116
Vthepapclan
p117
sg93
Ven
p118
sVprofile_background_tile
p119
I00
sVfavourites_count
p120
I0
sVname
p121
Vthepapclan
p122
sVnotifications
p123
Nsg57
Nsg95
VTue Feb 25 09:56:01 +0000 2014
p124
sVcontributors_enabled
p125
I00
sVtime_zone
p126
NsVprotected
p127
I00
sVdefault_profile
p128
I00
sVis_translator
p129
I00
sa(dp130
g2
Nsg3
I01
sg4
I00
sg5
I102619105
sg6
Vhttps://pbs.twimg.com/profile_background_images/680246399/083a212f948cceb06484a1f292b8a334.gif
p131
sg8
I00
sg9
VD02B55
p132
sg11
Nsg12
Vhttps://pbs.twimg.com/profile_images/1699901851/163659_192029554144748_100000131152586_850771_6776895_n_normal.JPG
p133
sg14
V99CC33
p134
sg16
(dp135
g57
(dp136
g20
(lp137
(dp138
g57
Vhttp://t.co/4sbI4TvNJv
p139
sg79
(lp140
I0
aI22
asg53
Vhttp://kryptoneconsultingltd.weebly.com
p141
sg55
Vkryptoneconsultingltd.weebly.com
p142
sassg18
(dp143
g20
(lp144
sssg22
I1245
sg23
VFFFFFF
p145
sg25
V102619105
p146
sg27
V293325
p147
sg29
I1
sg30
(dp148
g32
Nsg33
I00
sg34
VToday stats: No new followers, 3 unfollowers via http://t.co/9bZZCWyTbi
p149
sg36
Nsg5
I474682283392131072
sg37
I0
sg38
V<a href="http://unfollowers.com" rel="nofollow">Unfollowers.me</a>
p150
sg40
I00
sg41
Nsg16
(dp151
g43
(lp152
sg45
(lp153
sg47
(lp154
sg20
(lp155
(dp156
g57
Vhttp://t.co/9bZZCWyTbi
p157
sg79
(lp158
I49
aI71
asg53
Vhttp://Unfollowers.com/?s=dt
p159
sg55
VUnfollowers.com/?s=dt
p160
sassg85
Nsg25
V474682283392131072
p161
sg87
I0
sg88
Nsg89
I00
sg90
Nsg91
Nsg92
I00
sg93
Ven
p162
sg95
VThu Jun 05 22:40:50 +0000 2014
p163
sg97
Nsg98
Nssg99
I00
sg100
I-25200
sg101
I10623
sg18
VEnvironment, Project Management and Sustainable Development Consultant
p164
sg103
I1213
sg104
VNairobi, Kenya
p165
sg106
V494D2D
p166
sg108
Vhttp://pbs.twimg.com/profile_images/1699901851/163659_192029554144748_100000131152586_850771_6776895_n_normal.JPG
p167
sg110
Nsg111
I01
sg112
Vhttps://pbs.twimg.com/profile_banners/102619105/1364317991
p168
sg114
Vhttp://pbs.twimg.com/profile_background_images/680246399/083a212f948cceb06484a1f292b8a334.gif
p169
sg116
Vnichomaingi
p170
sg93
Ven
p171
sg119
I00
sg120
I19
sg121
VNichodemus Mwania
p172
sg123
Nsg57
Vhttp://t.co/4sbI4TvNJv
p173
sg95
VThu Jan 07 08:32:43 +0000 2010
p174
sg125
I00
sg126
VArizona
p175
sg127
I00
sg128
I00
sg129
I00
sa.