(lp0
(dp1
Vfollow_request_sent
p2
NsVprofile_use_background_image
p3
I01
sVdefault_profile_image
p4
I00
sVid
p5
I292778489
sVprofile_background_image_url_https
p6
Vhttps://abs.twimg.com/images/themes/theme10/bg.gif
p7
sVverified
p8
I00
sVprofile_text_color
p9
V3D1957
p10
sVmuting
p11
NsVprofile_image_url_https
p12
Vhttps://pbs.twimg.com/profile_images/426201125025378304/tZR4IB7O_normal.jpeg
p13
sVprofile_sidebar_fill_color
p14
V7AC3EE
p15
sVentities
p16
(dp17
Vdescription
p18
(dp19
Vurls
p20
(lp21
sssVfollowers_count
p22
I626
sVprofile_sidebar_border_color
p23
V65B0DA
p24
sVid_str
p25
V292778489
p26
sVprofile_background_color
p27
V642D8B
p28
sVlisted_count
p29
I1
sVstatus
p30
(dp31
Vlang
p32
Vet
p33
sVfavorited
p34
I00
sg16
(dp35
Vsymbols
p36
(lp37
sVuser_mentions
p38
(lp39
(dp40
g5
I235546361
sVindices
p41
(lp42
I0
aI9
asg25
V235546361
p43
sVscreen_name
p44
Va_opondo
p45
sVname
p46
VAdhiambo Opondo
p47
sasVhashtags
p48
(lp49
sg20
(lp50
ssVcontributors
p51
NsVtruncated
p52
I00
sVtext
p53
V@a_opondo now iam
p54
sVcreated_at
p55
VMon May 26 18:29:47 +0000 2014
p56
sVretweeted
p57
I00
sVin_reply_to_status_id_str
p58
V470947480189014016
p59
sVcoordinates
p60
NsVin_reply_to_user_id_str
p61
V235546361
p62
sVsource
p63
V<a href="http://twitter.com" rel="nofollow">Twitter Web Client</a>
p64
sVin_reply_to_status_id
p65
I470947480189014016
sVin_reply_to_screen_name
p66
Va_opondo
p67
sg25
V470995228812640256
p68
sVplace
p69
NsVretweet_count
p70
I0
sVgeo
p71
Nsg5
I470995228812640256
sVfavorite_count
p72
I0
sVin_reply_to_user_id
p73
I235546361
ssVis_translation_enabled
p74
I00
sVutc_offset
p75
I10800
sVstatuses_count
p76
I323
sg18
VActress learning on the job
p77
sVfriends_count
p78
I1571
sVlocation
p79
VNairobi, Kenya
p80
sVprofile_link_color
p81
VFF0000
p82
sVprofile_image_url
p83
Vhttp://pbs.twimg.com/profile_images/426201125025378304/tZR4IB7O_normal.jpeg
p84
sVfollowing
p85
NsVgeo_enabled
p86
I01
sVprofile_banner_url
p87
Vhttps://pbs.twimg.com/profile_banners/292778489/1397885616
p88
sVprofile_background_image_url
p89
Vhttp://abs.twimg.com/images/themes/theme10/bg.gif
p90
sg44
VMbekimwalimu
p91
sg32
Ven
p92
sVprofile_background_tile
p93
I01
sVfavourites_count
p94
I5
sg46
VMbeki Mwalimu
p95
sVnotifications
p96
NsVurl
p97
Nsg55
VWed May 04 06:35:59 +0000 2011
p98
sVcontributors_enabled
p99
I00
sVtime_zone
p100
VBaghdad
p101
sVprotected
p102
I00
sVdefault_profile
p103
I00
sVis_translator
p104
I00
sa(dp105
g2
Nsg3
I01
sg4
I00
sg5
I2202101567
sg6
Vhttps://abs.twimg.com/images/themes/theme1/bg.png
p106
sg8
I00
sg9
V333333
p107
sg11
Nsg12
Vhttps://pbs.twimg.com/profile_images/421542030557589504/6bEry_w8_normal.jpeg
p108
sg14
VDDEEF6
p109
sg16
(dp110
g18
(dp111
g20
(lp112
sssg22
I180
sg23
VC0DEED
p113
sg25
V2202101567
p114
sg27
VC0DEED
p115
sg29
I3
sg30
(dp116
g51
Nsg52
I00
sg53
VBrilliant @piersmorgan: Congrats to Roy Hodgson on choosing an excellent @England WC squad .Bold, youthful, exciting: http://t.co/YqOjjizNFS
p117
sg65
Nsg5
I465840019324674048
sg72
I0
sg63
V<a href="http://twitter.com/download/android" rel="nofollow">Twitter for Android</a>
p118
sg57
I00
sg60
Nsg16
(dp119
g36
(lp120
sg38
(lp121
(dp122
g5
I216299334
sg41
(lp123
I10
aI22
asg25
V216299334
p124
sg44
Vpiersmorgan
p125
sg46
VPiers Morgan
p126
sa(dp127
g5
I1903382054
sg41
(lp128
I73
aI81
asg25
V1903382054
p129
sg44
Vengland
p130
sg46
VEngland
p131
sasg48
(lp132
sg20
(lp133
sVmedia
p134
(lp135
(dp136
Vsource_status_id_str
p137
V465838619459321856
p138
sVexpanded_url
p139
Vhttp://twitter.com/england/status/465838619459321856/photo/1
p140
sVdisplay_url
p141
Vpic.twitter.com/YqOjjizNFS
p142
sg97
Vhttp://t.co/YqOjjizNFS
p143
sVmedia_url_https
p144
Vhttps://pbs.twimg.com/media/Bnb9wUYIIAAcWgR.jpg
p145
sVsource_status_id
p146
I465838619459321856
sg25
V465838618024878080
p147
sVsizes
p148
(dp149
Vlarge
p150
(dp151
Vh
p152
I1527
sVresize
p153
Vfit
p154
sVw
p155
I1024
ssVsmall
p156
(dp157
g152
I507
sg153
Vfit
p158
sg155
I340
ssVmedium
p159
(dp160
g152
I895
sg153
Vfit
p161
sg155
I600
ssVthumb
p162
(dp163
g152
I150
sg153
Vcrop
p164
sg155
I150
sssg41
(lp165
I118
aI140
asVtype
p166
Vphoto
p167
sg5
I465838618024878080
sVmedia_url
p168
Vhttp://pbs.twimg.com/media/Bnb9wUYIIAAcWgR.jpg
p169
sassg66
Nsg25
V465840019324674048
p170
sg70
I1
sg73
Nsg34
I00
sg71
Nsg61
NsVpossibly_sensitive
p171
I00
sg32
Ven
p172
sg55
VMon May 12 13:04:50 +0000 2014
p173
sg58
Nsg69
Nssg74
I00
sg75
Nsg76
I199
sg18
Vjust being me
p174
sg78
I432
sg79
Vnairobi
p175
sg81
V0084B4
p176
sg83
Vhttp://pbs.twimg.com/profile_images/421542030557589504/6bEry_w8_normal.jpeg
p177
sg85
Nsg86
I01
sg87
Vhttps://pbs.twimg.com/profile_banners/2202101567/1389336729
p178
sg89
Vhttp://abs.twimg.com/images/themes/theme1/bg.png
p179
sg44
Vmillyvimla
p180
sg32
Ven
p181
sg93
I00
sg94
I6
sg46
Vmillicent irungu
p182
sg96
Nsg97
Nsg55
VSat Nov 30 18:34:33 +0000 2013
p183
sg99
I00
sg100
Nsg102
I00
sg103
I01
sg104
I00
sa(dp184
g2
Nsg3
I01
sg4
I00
sg5
I533097328
sg6
Vhttps://abs.twimg.com/images/themes/theme5/bg.gif
p185
sg8
I00
sg9
V3E4415
p186
sg11
Nsg12
Vhttps://pbs.twimg.com/profile_images/473838359279058946/1xuX5Rvo_normal.jpeg
p187
sg14
V99CC33
p188
sg16
(dp189
g18
(dp190
g20
(lp191
sssg22
I385
sg23
V829D5E
p192
sg25
V533097328
p193
sg27
V352726
p194
sg29
I1
sg30
(dp195
g32
Ven
p196
sg34
I00
sg16
(dp197
g36
(lp198
sg38
(lp199
sg48
(lp200
(dp201
g41
(lp202
I0
aI4
asg53
Vjkl
p203
sasg20
(lp204
ssg51
Nsg52
I00
sg53
V#jkl ask him what they do that the football federation does not do!!..
p205
sg55
VThu Jun 05 20:00:16 +0000 2014
p206
sg57
I00
sg58
Nsg60
Nsg61
Nsg63
V<a href="http://www.twitter.com" rel="nofollow">Twitter for Windows Phone</a>
p207
sg65
Nsg66
Nsg25
V474641874771517443
p208
sg69
Nsg70
I0
sg71
Nsg5
I474641874771517443
sg72
I0
sg73
Nssg74
I00
sg75
I10800
sg76
I2477
sg18
VJAZZ. FRIEND. BOYFRIEND.BROTHER.STUDENT OF LIFE.SINGER.DANCER.TRUMPETER
p209
sg78
I844
sg79
Vnairobi 
p210
sg81
VD02B55
p211
sg83
Vhttp://pbs.twimg.com/profile_images/473838359279058946/1xuX5Rvo_normal.jpeg
p212
sg85
Nsg86
I01
sg87
Vhttps://pbs.twimg.com/profile_banners/533097328/1401806850
p213
sg89
Vhttp://abs.twimg.com/images/themes/theme5/bg.gif
p214
sg44
VKimaruChristian
p215
sg32
Ven
p216
sg93
I00
sg94
I208
sg46
VSir_Casm
p217
sg96
Nsg97
Nsg55
VThu Mar 22 12:30:27 +0000 2012
p218
sg99
I00
sg100
VBaghdad
p219
sg102
I00
sg103
I00
sg104
I00
sa(dp220
g2
Nsg3
I01
sg4
I00
sg5
I622819280
sg6
Vhttps://abs.twimg.com/images/themes/theme6/bg.gif
p221
sg8
I00
sg9
V333333
p222
sg11
Nsg12
Vhttps://pbs.twimg.com/profile_images/428823022615552000/zCCUunJ9_normal.jpeg
p223
sg14
VA0C5C7
p224
sg16
(dp225
g18
(dp226
g20
(lp227
sssg22
I25
sg23
V86A4A6
p228
sg25
V622819280
p229
sg27
V709397
p230
sg29
I0
sg30
(dp231
g51
Nsg52
I00
sg53
VRT @JoyDoreenBiira: "There is no greater agony than bearing an untold story inside you." ~ #MayaAngelou
p232
sg65
Nsg5
I472037391465598977
sg72
I0
sg63
V<a href="http://www.samsungmobile.com" rel="nofollow">Samsung Mobile</a>
p233
sg57
I00
sg60
Nsg16
(dp234
g36
(lp235
sg38
(lp236
(dp237
g5
I174659944
sg41
(lp238
I3
aI18
asg25
V174659944
p239
sg44
VJoyDoreenBiira
p240
sg46
VJoy Doreen BIIRA
p241
sasg48
(lp242
(dp243
g41
(lp244
I91
aI103
asg53
VMayaAngelou
p245
sasg20
(lp246
ssg66
Nsg25
V472037391465598977
p247
sg70
I22
sg73
Nsg34
I00
sVretweeted_status
p248
(dp249
g32
Ven
p250
sg34
I00
sg16
(dp251
g36
(lp252
sg38
(lp253
sg48
(lp254
(dp255
g41
(lp256
I71
aI83
asg53
VMayaAngelou
p257
sasg20
(lp258
ssg51
Nsg52
I00
sg53
V"There is no greater agony than bearing an untold story inside you." ~ #MayaAngelou
p259
sg55
VThu May 29 15:22:34 +0000 2014
p260
sg57
I00
sg58
Nsg60
Nsg61
Nsg63
V<a href="http://twitter.com" rel="nofollow">Twitter Web Client</a>
p261
sg65
Nsg66
Nsg25
V472035276047810560
p262
sg69
Nsg70
I22
sg71
Nsg5
I472035276047810560
sg72
I10
sg73
Nssg71
Nsg61
Nsg32
Ven
p263
sg55
VThu May 29 15:30:58 +0000 2014
p264
sg58
Nsg69
Nssg74
I00
sg75
I10800
sg76
I99
sg18
VGraphics Designer
p265
sg78
I256
sg79
VNairobi
p266
sg81
VFF3300
p267
sg83
Vhttp://pbs.twimg.com/profile_images/428823022615552000/zCCUunJ9_normal.jpeg
p268
sg85
Nsg86
I01
sg87
Vhttps://pbs.twimg.com/profile_banners/622819280/1363329795
p269
sg89
Vhttp://abs.twimg.com/images/themes/theme6/bg.gif
p270
sg44
Valtonthuku
p271
sg32
Ven
p272
sg93
I00
sg94
I6
sg46
VThuku Alton
p273
sg96
Nsg97
Nsg55
VSat Jun 30 13:32:54 +0000 2012
p274
sg99
I00
sg100
VBaghdad
p275
sg102
I00
sg103
I00
sg104
I00
sa(dp276
g2
Nsg3
I01
sg4
I00
sg5
I312013180
sg6
Vhttps://pbs.twimg.com/profile_background_images/449396531/gogosimooo.jpg
p277
sg8
I00
sg9
V333333
p278
sg11
Nsg12
Vhttps://pbs.twimg.com/profile_images/463655342606262272/SmXRD1kf_normal.jpeg
p279
sg14
VEFEFEF
p280
sg16
(dp281
g18
(dp282
g20
(lp283
sssg22
I721
sg23
VFFFFFF
p284
sg25
V312013180
p285
sg27
V131516
p286
sg29
I5
sg30
(dp287
g32
Ven
p288
sg34
I00
sg16
(dp289
g36
(lp290
sg38
(lp291
(dp292
g5
I348580935
sg41
(lp293
I1
aI14
asg25
V348580935
p294
sg44
VMs_Nabukenya
p295
sg46
VNashipai
p296
sa(dp297
g5
I183165874
sg41
(lp298
I102
aI112
asg25
V183165874
p299
sg44
VUKenyatta
p300
sg46
VUhuru Kenyatta
p301
sasg48
(lp302
sg20
(lp303
ssg51
Nsg52
I00
sg53
V"@Ms_Nabukenya: We now want KDF out of Somalia? Seriously\u000awhat are we thinking?" { Uliza huyu----&gt; @UKenyatta
p304
sg55
VThu Jun 05 18:18:33 +0000 2014
p305
sg57
I00
sg58
Nsg60
Nsg61
Nsg63
V<a href="http://twitter.com/download/android" rel="nofollow">Twitter for Android</a>
p306
sg65
Nsg66
Nsg25
V474616280641572864
p307
sg69
Nsg70
I0
sg71
Nsg5
I474616280641572864
sg72
I0
sg73
Nssg74
I00
sg75
I10800
sg76
I21785
sg18
VSimple, loves charity, Future Husband and Father of two Kids. Entertainer. Event organizer.
p308
sg78
I704
sg79
VNairobi
p309
sg81
V009999
p310
sg83
Vhttp://pbs.twimg.com/profile_images/463655342606262272/SmXRD1kf_normal.jpeg
p311
sg85
Nsg86
I01
sg87
Vhttps://pbs.twimg.com/profile_banners/312013180/1399378982
p312
sg89
Vhttp://pbs.twimg.com/profile_background_images/449396531/gogosimooo.jpg
p313
sg44
VDansonMateya
p314
sg32
Ven
p315
sg93
I01
sg94
I229
sg46
VDanson Mateya
p316
sg96
Nsg97
Nsg55
VMon Jun 06 12:59:57 +0000 2011
p317
sg99
I00
sg100
VBaghdad
p318
sg102
I00
sg103
I00
sg104
I00
sa.